

HI-TECH Software PIC LITE Macro Assembler V9.83 build 10920 
                                                                                               Thu Aug 07 17:03:11 2025

HI-TECH Software Omniscient Code Generator (Lite mode) build 10920
     1  0000                     opt subtitle "HI-TECH Software Omniscient Code Generator (Lite mode) build 10920"
     2                           
     3                           opt pagewidth 120
     4                           
     5                           	opt lm
     6                           
     7                           	processor	16F886
     8                           clrc	macro
     9                           	bcf	3,0
    10  0000                     	endm
    11                           clrz	macro
    12                           	bcf	3,2
    13  0000                     	endm
    14                           setc	macro
    15                           	bsf	3,0
    16  0000                     	endm
    17                           setz	macro
    18                           	bsf	3,2
    19  0000                     	endm
    20                           skipc	macro
    21                           	btfss	3,0
    22  0000                     	endm
    23                           skipz	macro
    24                           	btfss	3,2
    25  0000                     	endm
    26                           skipnc	macro
    27                           	btfsc	3,0
    28  0000                     	endm
    29                           skipnz	macro
    30                           	btfsc	3,2
    31  0000                     	endm
    32  0000                     indf	equ	0
    33  0000                     indf0	equ	0
    34  0002                     pc	equ	2
    35  0002                     pcl	equ	2
    36  0003                     status	equ	3
    37  0004                     fsr	equ	4
    38  0004                     fsr0	equ	4
    39  0001                     c	equ	1
    40  0000                     z	equ	0
    41  000A                     pclath	equ	10
    42                           	FNCALL	_main,_uart_init
    43                           	FNCALL	_main,_printf
    44                           	FNCALL	_main,_eeprom_write_byte
    45                           	FNCALL	_main,_eeprom_read_byte
    46                           	FNCALL	_eeprom_read_byte,_i2c_start
    47                           	FNCALL	_eeprom_read_byte,_i2c_write_byte
    48                           	FNCALL	_eeprom_read_byte,_i2c_read_byte
    49                           	FNCALL	_eeprom_read_byte,_i2c_stop
    50                           	FNCALL	_eeprom_write_byte,_i2c_start
    51                           	FNCALL	_eeprom_write_byte,_i2c_write_byte
    52                           	FNCALL	_eeprom_write_byte,_i2c_stop
    53                           	FNCALL	_i2c_read_byte,_i2c_wait
    54                           	FNCALL	_i2c_read_byte,_i2c_send_ack
    55                           	FNCALL	_i2c_write_byte,_i2c_wait
    56                           	FNCALL	_i2c_write_byte,_i2c_read_ack
    57                           	FNCALL	_i2c_send_ack,_i2c_wait
    58                           	FNCALL	_i2c_read_ack,_i2c_wait
    59                           	FNCALL	_i2c_stop,_i2c_wait
    60                           	FNCALL	_i2c_start,_i2c_wait
    61                           	FNCALL	_printf,_putch
    62                           	FNCALL	_printf,_isdigit
    63                           	FNCALL	_printf,___wmul
    64                           	FNCALL	_printf,___lwdiv
    65                           	FNCALL	_printf,___lwmod
    66                           	FNROOT	_main
    67                           	global	_dpowers
    68                           psect	stringtext,class=STRCODE,delta=2,reloc=256
    69                           global __pstringtext
    70  0800                     __pstringtext:
    71                           ;	global	stringtab,__stringbase
    72  0800                     stringtab:
    73                           ;	String table - string pointers are 2 bytes each
    74  0800  1BFF               	btfsc	(btemp+1),7
    75  0801  280A               	ljmp	stringcode
    76  0802  1383               	bcf	status,7
    77  0803  187F               	btfsc	(btemp+1),0
    78  0804  1783               	bsf	status,7
    79  0805  0800               	movf	indf,w
    80  0806  0A84               	incf fsr
    81  0807  1903               skipnz
    82  0808  0AFF               incf btemp+1
    83  0809  0008               	return
    84  080A                     stringcode:
    85  080A  087F               	movf btemp+1,w
    86  080B  397F               andlw 7Fh
    87  080C  008A               movwf	pclath
    88  080D  0804               	movf	fsr,w
    89  080E  0A84               incf fsr
    90  080F  1903               skipnz
    91  0810  0AFF               incf btemp+1
    92  0811  0082               	movwf pc
    93  0812                     __stringbase:
    94                           	file	"C:\Program Files (x86)\HI-TECH Software\PICC\9.83\lib\doprnt.c"
    95                           	line	350
    96  0812                     _dpowers:
    97  0812  3401               	retlw	01h
    98  0813  3400               	retlw	0
    99                           
   100  0814  340A               	retlw	0Ah
   101  0815  3400               	retlw	0
   102                           
   103  0816  3464               	retlw	064h
   104  0817  3400               	retlw	0
   105                           
   106  0818  34E8               	retlw	0E8h
   107  0819  3403               	retlw	03h
   108                           
   109  081A  3410               	retlw	010h
   110  081B  3427               	retlw	027h
   111                           
   112                           	global	_hexpowers
   113                           psect	stringtext
   114                           	file	"C:\Program Files (x86)\HI-TECH Software\PICC\9.83\lib\doprnt.c"
   115                           	line	358
   116  081C                     _hexpowers:
   117  081C  3401               	retlw	01h
   118  081D  3400               	retlw	0
   119                           
   120  081E  3410               	retlw	010h
   121  081F  3400               	retlw	0
   122                           
   123  0820  3400               	retlw	0
   124  0821  3401               	retlw	01h
   125                           
   126  0822  3400               	retlw	0
   127  0823  3410               	retlw	010h
   128                           
   129                           	global	_dpowers
   130                           	global	_hexpowers
   131                           	global	_TXREG
   132  0019                     _TXREG	set	25
   133                           	global	_CARRY
   134  0018                     _CARRY	set	24
   135                           	global	_CREN
   136  00C4                     _CREN	set	196
   137                           	global	_GIE
   138  005F                     _GIE	set	95
   139                           	global	_RB3
   140  0033                     _RB3	set	51
   141                           	global	_RB4
   142  0034                     _RB4	set	52
   143                           	global	_SPEN
   144  00C7                     _SPEN	set	199
   145                           	global	_TXIF
   146  0064                     _TXIF	set	100
   147                           	global	_SPBRG
   148  0099                     _SPBRG	set	153
   149                           	global	_BRGH
   150  04C2                     _BRGH	set	1218
   151                           	global	_SYNC
   152  04C4                     _SYNC	set	1220
   153                           	global	_TRISB3
   154  0433                     _TRISB3	set	1075
   155                           	global	_TRISB4
   156  0434                     _TRISB4	set	1076
   157                           	global	_TXEN
   158  04C5                     _TXEN	set	1221
   159                           	global	_EEADR
   160  010D                     _EEADR	set	269
   161                           	global	_EEDATA
   162  010C                     _EEDATA	set	268
   163                           	global	_ANSEL
   164  0188                     _ANSEL	set	392
   165                           	global	_ANSELH
   166  0189                     _ANSELH	set	393
   167                           	global	_EECON1
   168  018C                     _EECON1	set	396
   169                           	global	_EECON2
   170  018D                     _EECON2	set	397
   171                           	global	_RD
   172  0C60                     _RD	set	3168
   173                           	global	_WR
   174  0C61                     _WR	set	3169
   175                           	global	_WREN
   176  0C62                     _WREN	set	3170
   177                           	
   178  0824                     STR_1:	
   179  0824  340D               	retlw	13
   180  0825  340A               	retlw	10
   181  0826  343D               	retlw	61	;'='
   182  0827  343D               	retlw	61	;'='
   183  0828  3420               	retlw	32	;' '
   184  0829  3445               	retlw	69	;'E'
   185  082A  3445               	retlw	69	;'E'
   186  082B  3450               	retlw	80	;'P'
   187  082C  3452               	retlw	82	;'R'
   188  082D  344F               	retlw	79	;'O'
   189  082E  344D               	retlw	77	;'M'
   190  082F  3420               	retlw	32	;' '
   191  0830  3454               	retlw	84	;'T'
   192  0831  3465               	retlw	101	;'e'
   193  0832  3473               	retlw	115	;'s'
   194  0833  3474               	retlw	116	;'t'
   195  0834  3420               	retlw	32	;' '
   196  0835  3440               	retlw	64	;'@'
   197  0836  3420               	retlw	32	;' '
   198  0837  3452               	retlw	82	;'R'
   199  0838  3442               	retlw	66	;'B'
   200  0839  3433               	retlw	51	;'3'
   201  083A  3428               	retlw	40	;'('
   202  083B  3453               	retlw	83	;'S'
   203  083C  3444               	retlw	68	;'D'
   204  083D  3441               	retlw	65	;'A'
   205  083E  3429               	retlw	41	;')'
   206  083F  342C               	retlw	44	;','
   207  0840  3420               	retlw	32	;' '
   208  0841  3452               	retlw	82	;'R'
   209  0842  3442               	retlw	66	;'B'
   210  0843  3434               	retlw	52	;'4'
   211  0844  3428               	retlw	40	;'('
   212  0845  3453               	retlw	83	;'S'
   213  0846  3443               	retlw	67	;'C'
   214  0847  344C               	retlw	76	;'L'
   215  0848  3429               	retlw	41	;')'
   216  0849  3420               	retlw	32	;' '
   217  084A  343D               	retlw	61	;'='
   218  084B  343D               	retlw	61	;'='
   219  084C  340D               	retlw	13
   220  084D  340A               	retlw	10
   221  084E  3400               	retlw	0
   222                           psect	stringtext
   223                           	
   224  084F                     STR_2:	
   225  084F  3457               	retlw	87	;'W'
   226  0850  3472               	retlw	114	;'r'
   227  0851  3469               	retlw	105	;'i'
   228  0852  3474               	retlw	116	;'t'
   229  0853  3469               	retlw	105	;'i'
   230  0854  346E               	retlw	110	;'n'
   231  0855  3467               	retlw	103	;'g'
   232  0856  3420               	retlw	32	;' '
   233  0857  3441               	retlw	65	;'A'
   234  0858  3496               	retlw	-106
   235  0859  344A               	retlw	74	;'J'
   236  085A  3420               	retlw	32	;' '
   237  085B  3474               	retlw	116	;'t'
   238  085C  346F               	retlw	111	;'o'
   239  085D  3420               	retlw	32	;' '
   240  085E  3430               	retlw	48	;'0'
   241  085F  3478               	retlw	120	;'x'
   242  0860  3430               	retlw	48	;'0'
   243  0861  3430               	retlw	48	;'0'
   244  0862  3430               	retlw	48	;'0'
   245  0863  3430               	retlw	48	;'0'
   246  0864  3496               	retlw	-106
   247  0865  3430               	retlw	48	;'0'
   248  0866  3478               	retlw	120	;'x'
   249  0867  3430               	retlw	48	;'0'
   250  0868  3430               	retlw	48	;'0'
   251  0869  3430               	retlw	48	;'0'
   252  086A  3439               	retlw	57	;'9'
   253  086B  342E               	retlw	46	;'.'
   254  086C  342E               	retlw	46	;'.'
   255  086D  342E               	retlw	46	;'.'
   256  086E  340D               	retlw	13
   257  086F  340A               	retlw	10
   258  0870  3400               	retlw	0
   259                           psect	stringtext
   260                           	
   261  0871                     STR_12:	
   262  0871  340D               	retlw	13
   263  0872  340A               	retlw	10
   264  0873  3454               	retlw	84	;'T'
   265  0874  3465               	retlw	101	;'e'
   266  0875  3473               	retlw	115	;'s'
   267  0876  3474               	retlw	116	;'t'
   268  0877  3420               	retlw	32	;' '
   269  0878  3443               	retlw	67	;'C'
   270  0879  346F               	retlw	111	;'o'
   271  087A  346D               	retlw	109	;'m'
   272  087B  3470               	retlw	112	;'p'
   273  087C  346C               	retlw	108	;'l'
   274  087D  3465               	retlw	101	;'e'
   275  087E  3474               	retlw	116	;'t'
   276  087F  3465               	retlw	101	;'e'
   277  0880  342E               	retlw	46	;'.'
   278  0881  3420               	retlw	32	;' '
   279  0882  3445               	retlw	69	;'E'
   280  0883  3472               	retlw	114	;'r'
   281  0884  3472               	retlw	114	;'r'
   282  0885  346F               	retlw	111	;'o'
   283  0886  3472               	retlw	114	;'r'
   284  0887  3473               	retlw	115	;'s'
   285  0888  343A               	retlw	58	;':'
   286  0889  3420               	retlw	32	;' '
   287  088A  3425               	retlw	37	;'%'
   288  088B  3475               	retlw	117	;'u'
   289  088C  340D               	retlw	13
   290  088D  340A               	retlw	10
   291  088E  3400               	retlw	0
   292                           psect	stringtext
   293                           	
   294  088F                     STR_3:	
   295  088F  3457               	retlw	87	;'W'
   296  0890  3472               	retlw	114	;'r'
   297  0891  3469               	retlw	105	;'i'
   298  0892  3474               	retlw	116	;'t'
   299  0893  3469               	retlw	105	;'i'
   300  0894  346E               	retlw	110	;'n'
   301  0895  3467               	retlw	103	;'g'
   302  0896  3420               	retlw	32	;' '
   303  0897  3427               	retlw	39	;'''
   304  0898  3425               	retlw	37	;'%'
   305  0899  3463               	retlw	99	;'c'
   306  089A  3427               	retlw	39	;'''
   307  089B  3420               	retlw	32	;' '
   308  089C  3474               	retlw	116	;'t'
   309  089D  346F               	retlw	111	;'o'
   310  089E  3420               	retlw	32	;' '
   311  089F  3430               	retlw	48	;'0'
   312  08A0  3478               	retlw	120	;'x'
   313  08A1  3425               	retlw	37	;'%'
   314  08A2  3430               	retlw	48	;'0'
   315  08A3  3434               	retlw	52	;'4'
   316  08A4  3458               	retlw	88	;'X'
   317  08A5  342E               	retlw	46	;'.'
   318  08A6  342E               	retlw	46	;'.'
   319  08A7  342E               	retlw	46	;'.'
   320  08A8  3420               	retlw	32	;' '
   321  08A9  3400               	retlw	0
   322                           psect	stringtext
   323                           	
   324  08AA                     STR_6:	
   325  08AA  340D               	retlw	13
   326  08AB  340A               	retlw	10
   327  08AC  3456               	retlw	86	;'V'
   328  08AD  3465               	retlw	101	;'e'
   329  08AE  3472               	retlw	114	;'r'
   330  08AF  3469               	retlw	105	;'i'
   331  08B0  3466               	retlw	102	;'f'
   332  08B1  3479               	retlw	121	;'y'
   333  08B2  3469               	retlw	105	;'i'
   334  08B3  346E               	retlw	110	;'n'
   335  08B4  3467               	retlw	103	;'g'
   336  08B5  3420               	retlw	32	;' '
   337  08B6  3464               	retlw	100	;'d'
   338  08B7  3461               	retlw	97	;'a'
   339  08B8  3474               	retlw	116	;'t'
   340  08B9  3461               	retlw	97	;'a'
   341  08BA  342E               	retlw	46	;'.'
   342  08BB  342E               	retlw	46	;'.'
   343  08BC  342E               	retlw	46	;'.'
   344  08BD  340D               	retlw	13
   345  08BE  340A               	retlw	10
   346  08BF  3400               	retlw	0
   347                           psect	stringtext
   348                           	
   349  08C0                     STR_7:	
   350  08C0  3452               	retlw	82	;'R'
   351  08C1  3465               	retlw	101	;'e'
   352  08C2  3461               	retlw	97	;'a'
   353  08C3  3464               	retlw	100	;'d'
   354  08C4  3469               	retlw	105	;'i'
   355  08C5  346E               	retlw	110	;'n'
   356  08C6  3467               	retlw	103	;'g'
   357  08C7  3420               	retlw	32	;' '
   358  08C8  3430               	retlw	48	;'0'
   359  08C9  3478               	retlw	120	;'x'
   360  08CA  3425               	retlw	37	;'%'
   361  08CB  3430               	retlw	48	;'0'
   362  08CC  3434               	retlw	52	;'4'
   363  08CD  3458               	retlw	88	;'X'
   364  08CE  342E               	retlw	46	;'.'
   365  08CF  342E               	retlw	46	;'.'
   366  08D0  342E               	retlw	46	;'.'
   367  08D1  3420               	retlw	32	;' '
   368  08D2  3400               	retlw	0
   369                           psect	stringtext
   370                           	
   371  08D3                     STR_14:	
   372  08D3  3430               	retlw	48	;'0'
   373  08D4  3431               	retlw	49	;'1'
   374  08D5  3432               	retlw	50	;'2'
   375  08D6  3433               	retlw	51	;'3'
   376  08D7  3434               	retlw	52	;'4'
   377  08D8  3435               	retlw	53	;'5'
   378  08D9  3436               	retlw	54	;'6'
   379  08DA  3437               	retlw	55	;'7'
   380  08DB  3438               	retlw	56	;'8'
   381  08DC  3439               	retlw	57	;'9'
   382  08DD  3441               	retlw	65	;'A'
   383  08DE  3442               	retlw	66	;'B'
   384  08DF  3443               	retlw	67	;'C'
   385  08E0  3444               	retlw	68	;'D'
   386  08E1  3445               	retlw	69	;'E'
   387  08E2  3446               	retlw	70	;'F'
   388  08E3  3400               	retlw	0
   389                           psect	stringtext
   390                           	
   391  08E4                     STR_8:	
   392  08E4  3447               	retlw	71	;'G'
   393  08E5  346F               	retlw	111	;'o'
   394  08E6  3474               	retlw	116	;'t'
   395  08E7  3420               	retlw	32	;' '
   396  08E8  3427               	retlw	39	;'''
   397  08E9  3425               	retlw	37	;'%'
   398  08EA  3463               	retlw	99	;'c'
   399  08EB  3427               	retlw	39	;'''
   400  08EC  3420               	retlw	32	;' '
   401  08ED  3496               	retlw	-106
   402  08EE  3420               	retlw	32	;' '
   403  08EF  3425               	retlw	37	;'%'
   404  08F0  3473               	retlw	115	;'s'
   405  08F1  340D               	retlw	13
   406  08F2  340A               	retlw	10
   407  08F3  3400               	retlw	0
   408                           psect	stringtext
   409                           	
   410  08F4                     STR_11:	
   411  08F4  3452               	retlw	82	;'R'
   412  08F5  3465               	retlw	101	;'e'
   413  08F6  3461               	retlw	97	;'a'
   414  08F7  3464               	retlw	100	;'d'
   415  08F8  3420               	retlw	32	;' '
   416  08F9  3446               	retlw	70	;'F'
   417  08FA  3461               	retlw	97	;'a'
   418  08FB  3469               	retlw	105	;'i'
   419  08FC  346C               	retlw	108	;'l'
   420  08FD  340D               	retlw	13
   421  08FE  340A               	retlw	10
   422  08FF  3400               	retlw	0
   423                           psect	stringtext
   424                           	
   425  0900                     STR_10:	
   426  0900  344D               	retlw	77	;'M'
   427  0901  3469               	retlw	105	;'i'
   428  0902  3473               	retlw	115	;'s'
   429  0903  346D               	retlw	109	;'m'
   430  0904  3461               	retlw	97	;'a'
   431  0905  3474               	retlw	116	;'t'
   432  0906  3463               	retlw	99	;'c'
   433  0907  3468               	retlw	104	;'h'
   434  0908  3421               	retlw	33	;'!'
   435  0909  3400               	retlw	0
   436                           psect	stringtext
   437                           	
   438  090A                     STR_13:	
   439  090A  3428               	retlw	40	;'('
   440  090B  346E               	retlw	110	;'n'
   441  090C  3475               	retlw	117	;'u'
   442  090D  346C               	retlw	108	;'l'
   443  090E  346C               	retlw	108	;'l'
   444  090F  3429               	retlw	41	;')'
   445  0910  3400               	retlw	0
   446                           psect	stringtext
   447                           	
   448  0911                     STR_5:	
   449  0911  3446               	retlw	70	;'F'
   450  0912  3441               	retlw	65	;'A'
   451  0913  3449               	retlw	73	;'I'
   452  0914  344C               	retlw	76	;'L'
   453  0915  340D               	retlw	13
   454  0916  340A               	retlw	10
   455  0917  3400               	retlw	0
   456                           psect	stringtext
   457                           	
   458  0918                     STR_9:	
   459  0918  344D               	retlw	77	;'M'
   460  0919  3461               	retlw	97	;'a'
   461  091A  3474               	retlw	116	;'t'
   462  091B  3463               	retlw	99	;'c'
   463  091C  3468               	retlw	104	;'h'
   464  091D  3400               	retlw	0
   465                           psect	stringtext
   466                           	
   467  091E                     STR_4:	
   468  091E  344F               	retlw	79	;'O'
   469  091F  344B               	retlw	75	;'K'
   470  0920  340D               	retlw	13
   471  0921  340A               	retlw	10
   472  0922  3400               	retlw	0
   473                           psect	stringtext
   474                           	file	"uart_check.as"
   475                           	line	#
   476                           psect cinit,class=CODE,delta=2
   477                           global start_initialization
   478  0150                     start_initialization:
   479                           
   480                           psect cinit,class=CODE,delta=2
   481                           global end_of_initialization
   482                           
   483                           ;End of C runtime variable initialization code
   484                           
   485  0150                     end_of_initialization:
   486  0150  0183               clrf status
   487  0151  120A  118A  2BC9   ljmp _main	;jump to C main() function
   488                           psect	cstackCOMMON,class=COMMON,space=1
   489                           global __pcstackCOMMON
   490  0070                     __pcstackCOMMON:
   491                           	global	?_isdigit
   492  0070                     ?_isdigit:	; 1 bit 
   493                           	global	??_isdigit
   494  0070                     ??_isdigit:	; 0 bytes @ 0x0
   495                           	global	?_uart_init
   496  0070                     ?_uart_init:	; 0 bytes @ 0x0
   497                           	global	??_uart_init
   498  0070                     ??_uart_init:	; 0 bytes @ 0x0
   499                           	global	?_putch
   500  0070                     ?_putch:	; 0 bytes @ 0x0
   501                           	global	??_putch
   502  0070                     ??_putch:	; 0 bytes @ 0x0
   503                           	global	?_i2c_wait
   504  0070                     ?_i2c_wait:	; 0 bytes @ 0x0
   505                           	global	??_i2c_wait
   506  0070                     ??_i2c_wait:	; 0 bytes @ 0x0
   507                           	global	?_i2c_start
   508  0070                     ?_i2c_start:	; 0 bytes @ 0x0
   509                           	global	??_i2c_start
   510  0070                     ??_i2c_start:	; 0 bytes @ 0x0
   511                           	global	?_i2c_stop
   512  0070                     ?_i2c_stop:	; 0 bytes @ 0x0
   513                           	global	??_i2c_stop
   514  0070                     ??_i2c_stop:	; 0 bytes @ 0x0
   515                           	global	??_i2c_read_ack
   516  0070                     ??_i2c_read_ack:	; 0 bytes @ 0x0
   517                           	global	?_i2c_send_ack
   518  0070                     ?_i2c_send_ack:	; 0 bytes @ 0x0
   519                           	global	??_i2c_send_ack
   520  0070                     ??_i2c_send_ack:	; 0 bytes @ 0x0
   521                           	global	?_main
   522  0070                     ?_main:	; 0 bytes @ 0x0
   523                           	global	?_i2c_read_ack
   524  0070                     ?_i2c_read_ack:	; 1 bytes @ 0x0
   525                           	global	?_i2c_write_byte
   526  0070                     ?_i2c_write_byte:	; 1 bytes @ 0x0
   527                           	global	?_i2c_read_byte
   528  0070                     ?_i2c_read_byte:	; 1 bytes @ 0x0
   529                           	global	?___wmul
   530  0070                     ?___wmul:	; 2 bytes @ 0x0
   531                           	global	?___lwdiv
   532  0070                     ?___lwdiv:	; 2 bytes @ 0x0
   533                           	global	putch@c
   534  0070                     putch@c:	; 1 bytes @ 0x0
   535                           	global	i2c_send_ack@ack
   536  0070                     i2c_send_ack@ack:	; 1 bytes @ 0x0
   537                           	global	_isdigit$2270
   538  0070                     _isdigit$2270:	; 1 bytes @ 0x0
   539                           	global	___wmul@multiplier
   540  0070                     ___wmul@multiplier:	; 2 bytes @ 0x0
   541                           	global	___lwdiv@divisor
   542  0070                     ___lwdiv@divisor:	; 2 bytes @ 0x0
   543  0070                     	ds	1
   544                           	global	??_i2c_read_byte
   545  0071                     ??_i2c_read_byte:	; 0 bytes @ 0x1
   546                           	global	i2c_read_ack@ack
   547  0071                     i2c_read_ack@ack:	; 1 bytes @ 0x1
   548                           	global	isdigit@c
   549  0071                     isdigit@c:	; 1 bytes @ 0x1
   550  0071                     	ds	1
   551                           	global	??_i2c_write_byte
   552  0072                     ??_i2c_write_byte:	; 0 bytes @ 0x2
   553                           	global	i2c_read_byte@ack
   554  0072                     i2c_read_byte@ack:	; 1 bytes @ 0x2
   555                           	global	___wmul@multiplicand
   556  0072                     ___wmul@multiplicand:	; 2 bytes @ 0x2
   557                           	global	___lwdiv@dividend
   558  0072                     ___lwdiv@dividend:	; 2 bytes @ 0x2
   559  0072                     	ds	1
   560                           	global	i2c_write_byte@data
   561  0073                     i2c_write_byte@data:	; 1 bytes @ 0x3
   562                           	global	i2c_read_byte@data
   563  0073                     i2c_read_byte@data:	; 1 bytes @ 0x3
   564  0073                     	ds	1
   565                           	global	??___wmul
   566  0074                     ??___wmul:	; 0 bytes @ 0x4
   567                           	global	??___lwdiv
   568  0074                     ??___lwdiv:	; 0 bytes @ 0x4
   569                           	global	i2c_write_byte@i
   570  0074                     i2c_write_byte@i:	; 1 bytes @ 0x4
   571                           	global	i2c_read_byte@i
   572  0074                     i2c_read_byte@i:	; 1 bytes @ 0x4
   573                           	global	___wmul@product
   574  0074                     ___wmul@product:	; 2 bytes @ 0x4
   575  0074                     	ds	1
   576                           	global	?_eeprom_write_byte
   577  0075                     ?_eeprom_write_byte:	; 1 bytes @ 0x5
   578                           	global	?_eeprom_read_byte
   579  0075                     ?_eeprom_read_byte:	; 1 bytes @ 0x5
   580                           	global	eeprom_write_byte@addr
   581  0075                     eeprom_write_byte@addr:	; 2 bytes @ 0x5
   582                           	global	eeprom_read_byte@addr
   583  0075                     eeprom_read_byte@addr:	; 2 bytes @ 0x5
   584                           	global	___lwdiv@quotient
   585  0075                     ___lwdiv@quotient:	; 2 bytes @ 0x5
   586  0075                     	ds	2
   587                           	global	eeprom_write_byte@data
   588  0077                     eeprom_write_byte@data:	; 1 bytes @ 0x7
   589                           	global	eeprom_read_byte@data
   590  0077                     eeprom_read_byte@data:	; 1 bytes @ 0x7
   591                           	global	___lwdiv@counter
   592  0077                     ___lwdiv@counter:	; 1 bytes @ 0x7
   593  0077                     	ds	1
   594                           	global	??_eeprom_write_byte
   595  0078                     ??_eeprom_write_byte:	; 0 bytes @ 0x8
   596                           	global	??_eeprom_read_byte
   597  0078                     ??_eeprom_read_byte:	; 0 bytes @ 0x8
   598                           	global	?___lwmod
   599  0078                     ?___lwmod:	; 2 bytes @ 0x8
   600                           	global	___lwmod@divisor
   601  0078                     ___lwmod@divisor:	; 2 bytes @ 0x8
   602  0078                     	ds	2
   603                           	global	___lwmod@dividend
   604  007A                     ___lwmod@dividend:	; 2 bytes @ 0xA
   605  007A                     	ds	2
   606                           	global	??___lwmod
   607  007C                     ??___lwmod:	; 0 bytes @ 0xC
   608  007C                     	ds	1
   609                           	global	___lwmod@counter
   610  007D                     ___lwmod@counter:	; 1 bytes @ 0xD
   611  007D                     	ds	1
   612                           psect	cstackBANK0,class=BANK0,space=1
   613                           global __pcstackBANK0
   614  0020                     __pcstackBANK0:
   615                           	global	?_printf
   616  0020                     ?_printf:	; 2 bytes @ 0x0
   617                           	global	printf@f
   618  0020                     printf@f:	; 2 bytes @ 0x0
   619  0020                     	ds	6
   620                           	global	??_printf
   621  0026                     ??_printf:	; 0 bytes @ 0x6
   622  0026                     	ds	3
   623                           	global	printf@prec
   624  0029                     printf@prec:	; 1 bytes @ 0x9
   625  0029                     	ds	1
   626                           	global	printf@ap
   627  002A                     printf@ap:	; 1 bytes @ 0xA
   628  002A                     	ds	1
   629                           	global	printf@flag
   630  002B                     printf@flag:	; 1 bytes @ 0xB
   631  002B                     	ds	1
   632                           	global	printf@width
   633  002C                     printf@width:	; 2 bytes @ 0xC
   634  002C                     	ds	2
   635                           	global	printf@c
   636  002E                     printf@c:	; 1 bytes @ 0xE
   637  002E                     	ds	1
   638                           	global	printf@_val
   639  002F                     printf@_val:	; 4 bytes @ 0xF
   640  002F                     	ds	4
   641                           	global	??_main
   642  0033                     ??_main:	; 0 bytes @ 0x13
   643  0033                     	ds	2
   644                           	global	_main$1747
   645  0035                     _main$1747:	; 2 bytes @ 0x15
   646  0035                     	ds	2
   647                           	global	main@err
   648  0037                     main@err:	; 1 bytes @ 0x17
   649  0037                     	ds	1
   650                           	global	main@addr
   651  0038                     main@addr:	; 2 bytes @ 0x18
   652  0038                     	ds	2
   653                           	global	main@addr_1741
   654  003A                     main@addr_1741:	; 2 bytes @ 0x1A
   655  003A                     	ds	2
   656                           	global	main@val
   657  003C                     main@val:	; 1 bytes @ 0x1C
   658  003C                     	ds	1
   659                           	global	main@expected
   660  003D                     main@expected:	; 1 bytes @ 0x1D
   661  003D                     	ds	1
   662                           	global	main@i
   663  003E                     main@i:	; 1 bytes @ 0x1E
   664  003E                     	ds	1
   665                           	global	main@i_1739
   666  003F                     main@i_1739:	; 1 bytes @ 0x1F
   667  003F                     	ds	1
   668                           	global	main@val_1740
   669  0040                     main@val_1740:	; 1 bytes @ 0x20
   670  0040                     	ds	1
   671 ;;Data sizes: Strings 255, constant 18, data 0, bss 0, persistent 0 stack 0
   672 ;;Auto spaces:   Size  Autos    Used
   673 ;; COMMON          14     14      14
   674 ;; BANK0           80     33      33
   675 ;; BANK1           80      0       0
   676 ;; BANK3           96      0       0
   677 ;; BANK2           96      0       0
   678                           
   679 ;;
   680 ;; Pointer list with targets:
   681                           
   682 ;; ?___lwdiv	unsigned int  size(1) Largest target is 0
   683 ;;
   684 ;; ?___lwmod	unsigned int  size(2) Largest target is 10
   685 ;;		 -> STR_10(CODE[10]), STR_9(CODE[6]), 
   686 ;;
   687 ;; ?___wmul	unsigned int  size(1) Largest target is 0
   688 ;;
   689 ;; printf@_val._cp	PTR const unsigned char  size(2) Largest target is 10
   690 ;;		 -> STR_13(CODE[7]), printf@c(BANK0[1]), STR_10(CODE[10]), STR_9(CODE[6]), 
   691 ;;
   692 ;; printf@f	PTR const unsigned char  size(2) Largest target is 43
   693 ;;		 -> STR_12(CODE[30]), STR_11(CODE[12]), STR_8(CODE[16]), STR_7(CODE[19]), 
   694 ;;		 -> STR_6(CODE[22]), STR_5(CODE[7]), STR_4(CODE[5]), STR_3(CODE[27]), 
   695 ;;		 -> STR_2(CODE[34]), STR_1(CODE[43]), 
   696 ;;
   697 ;; ?_printf	int  size(2) Largest target is 10
   698 ;;		 -> STR_10(CODE[10]), STR_9(CODE[6]), 
   699 ;;
   700 ;; printf@ap	PTR void [1] size(1) Largest target is 2
   701 ;;		 -> ?_printf(BANK0[2]), 
   702 ;;
   703 ;; S1774$_cp	PTR const unsigned char  size(2) Largest target is 10
   704 ;;		 -> STR_13(CODE[7]), printf@c(BANK0[1]), STR_10(CODE[10]), STR_9(CODE[6]), 
   705 ;;
   706 ;; _val._str._cp	PTR const unsigned char  size(2) Largest target is 10
   707 ;;		 -> STR_13(CODE[7]), printf@c(BANK0[1]), STR_10(CODE[10]), STR_9(CODE[6]), 
   708 ;;
   709 ;; main$1747	PTR const unsigned char  size(2) Largest target is 10
   710 ;;		 -> STR_10(CODE[10]), STR_9(CODE[6]), 
   711 ;;
   712 ;; eeprom_read_byte@data	PTR unsigned char  size(1) Largest target is 1
   713 ;;		 -> main@val_1740(BANK0[1]), 
   714 ;;
   715                           
   716                           
   717 ;;
   718 ;; Critical Paths under _main in COMMON
   719 ;;
   720 ;;   _eeprom_read_byte->_i2c_write_byte
   721 ;;   _eeprom_read_byte->_i2c_read_byte
   722 ;;   _eeprom_write_byte->_i2c_write_byte
   723 ;;   _i2c_read_byte->_i2c_send_ack
   724 ;;   _i2c_write_byte->_i2c_read_ack
   725 ;;   _printf->___lwmod
   726 ;;   ___lwmod->___lwdiv
   727 ;;
   728 ;; Critical Paths under _main in BANK0
   729 ;;
   730 ;;   _main->_printf
   731 ;;
   732 ;; Critical Paths under _main in BANK1
   733 ;;
   734 ;;   None.
   735 ;;
   736 ;; Critical Paths under _main in BANK3
   737 ;;
   738 ;;   None.
   739 ;;
   740 ;; Critical Paths under _main in BANK2
   741 ;;
   742 ;;   None.
   743                           
   744 ;;
   745 ;;Main: autosize = 0, tempsize = 2, incstack = 0, save=0
   746 ;;
   747                           
   748 ;;
   749 ;;Call Graph Tables:
   750 ;;
   751 ;; ---------------------------------------------------------------------------------
   752 ;; (Depth) Function   	        Calls       Base Space   Used Autos Params    Refs
   753 ;; ---------------------------------------------------------------------------------
   754 ;; (0) _main                                                14    14      0    2578
   755 ;;                                             19 BANK0     14    14      0
   756 ;;                          _uart_init
   757 ;;                             _printf
   758 ;;                  _eeprom_write_byte
   759 ;;                   _eeprom_read_byte
   760 ;; ---------------------------------------------------------------------------------
   761 ;; (1) _eeprom_read_byte                                     4     1      3     273
   762 ;;                                              5 COMMON     4     1      3
   763 ;;                          _i2c_start
   764 ;;                     _i2c_write_byte
   765 ;;                      _i2c_read_byte
   766 ;;                           _i2c_stop
   767 ;; ---------------------------------------------------------------------------------
   768 ;; (1) _eeprom_write_byte                                    5     2      3     158
   769 ;;                                              5 COMMON     5     2      3
   770 ;;                          _i2c_start
   771 ;;                     _i2c_write_byte
   772 ;;                           _i2c_stop
   773 ;; ---------------------------------------------------------------------------------
   774 ;; (2) _i2c_read_byte                                        4     4      0     115
   775 ;;                                              1 COMMON     4     4      0
   776 ;;                           _i2c_wait
   777 ;;                       _i2c_send_ack
   778 ;; ---------------------------------------------------------------------------------
   779 ;; (2) _i2c_write_byte                                       3     3      0      92
   780 ;;                                              2 COMMON     3     3      0
   781 ;;                           _i2c_wait
   782 ;;                       _i2c_read_ack
   783 ;; ---------------------------------------------------------------------------------
   784 ;; (3) _i2c_send_ack                                         1     1      0      22
   785 ;;                                              0 COMMON     1     1      0
   786 ;;                           _i2c_wait
   787 ;; ---------------------------------------------------------------------------------
   788 ;; (3) _i2c_read_ack                                         2     2      0      23
   789 ;;                                              0 COMMON     2     2      0
   790 ;;                           _i2c_wait
   791 ;; ---------------------------------------------------------------------------------
   792 ;; (2) _i2c_stop                                             0     0      0       0
   793 ;;                           _i2c_wait
   794 ;; ---------------------------------------------------------------------------------
   795 ;; (2) _i2c_start                                            0     0      0       0
   796 ;;                           _i2c_wait
   797 ;; ---------------------------------------------------------------------------------
   798 ;; (1) _printf                                              19    13      6    1648
   799 ;;                                              0 BANK0     19    13      6
   800 ;;                              _putch
   801 ;;                            _isdigit
   802 ;;                             ___wmul
   803 ;;                            ___lwdiv
   804 ;;                            ___lwmod
   805 ;; ---------------------------------------------------------------------------------
   806 ;; (3) _i2c_wait                                             0     0      0       0
   807 ;; ---------------------------------------------------------------------------------
   808 ;; (2) ___lwmod                                              6     2      4     159
   809 ;;                                              8 COMMON     6     2      4
   810 ;;                            ___lwdiv (ARG)
   811 ;; ---------------------------------------------------------------------------------
   812 ;; (2) ___lwdiv                                              8     4      4     162
   813 ;;                                              0 COMMON     8     4      4
   814 ;; ---------------------------------------------------------------------------------
   815 ;; (2) ___wmul                                               6     2      4      92
   816 ;;                                              0 COMMON     6     2      4
   817 ;; ---------------------------------------------------------------------------------
   818 ;; (2) _isdigit                                              2     2      0      68
   819 ;;                                              0 COMMON     2     2      0
   820 ;; ---------------------------------------------------------------------------------
   821 ;; (2) _putch                                                1     1      0      22
   822 ;;                                              0 COMMON     1     1      0
   823 ;; ---------------------------------------------------------------------------------
   824 ;; (1) _uart_init                                            0     0      0       0
   825 ;; ---------------------------------------------------------------------------------
   826 ;; Estimated maximum stack depth 3
   827 ;; ---------------------------------------------------------------------------------
   828                           
   829 ;; Call Graph Graphs:
   830                           
   831 ;; _main (ROOT)
   832 ;;   _uart_init
   833 ;;   _printf
   834 ;;     _putch
   835 ;;     _isdigit
   836 ;;     ___wmul
   837 ;;     ___lwdiv
   838 ;;     ___lwmod
   839 ;;       ___lwdiv (ARG)
   840 ;;   _eeprom_write_byte
   841 ;;     _i2c_start
   842 ;;       _i2c_wait
   843 ;;     _i2c_write_byte
   844 ;;       _i2c_wait
   845 ;;       _i2c_read_ack
   846 ;;         _i2c_wait
   847 ;;     _i2c_stop
   848 ;;       _i2c_wait
   849 ;;   _eeprom_read_byte
   850 ;;     _i2c_start
   851 ;;       _i2c_wait
   852 ;;     _i2c_write_byte
   853 ;;       _i2c_wait
   854 ;;       _i2c_read_ack
   855 ;;         _i2c_wait
   856 ;;     _i2c_read_byte
   857 ;;       _i2c_wait
   858 ;;       _i2c_send_ack
   859 ;;         _i2c_wait
   860 ;;     _i2c_stop
   861 ;;       _i2c_wait
   862 ;;
   863                           
   864 ;; Address spaces:
   865                           
   866 ;;Name               Size   Autos  Total    Cost      Usage
   867 ;;BITCOMMON            E      0       0       0        0.0%
   868 ;;EEDATA             100      0       0       0        0.0%
   869 ;;NULL                 0      0       0       0        0.0%
   870 ;;CODE                 0      0       0       0        0.0%
   871 ;;COMMON               E      E       E       1      100.0%
   872 ;;BITSFR0              0      0       0       1        0.0%
   873 ;;SFR0                 0      0       0       1        0.0%
   874 ;;BITSFR1              0      0       0       2        0.0%
   875 ;;SFR1                 0      0       0       2        0.0%
   876 ;;STACK                0      0       4       2        0.0%
   877 ;;ABS                  0      0       0       3        0.0%
   878 ;;BITBANK0            50      0       0       4        0.0%
   879 ;;BITSFR3              0      0       0       4        0.0%
   880 ;;SFR3                 0      0       0       4        0.0%
   881 ;;BANK0               50     21      21       5       41.3%
   882 ;;BITSFR2              0      0       0       5        0.0%
   883 ;;SFR2                 0      0       0       5        0.0%
   884 ;;BITBANK1            50      0       0       6        0.0%
   885 ;;BANK1               50      0       0       7        0.0%
   886 ;;BITBANK3            60      0       0       8        0.0%
   887 ;;BANK3               60      0       0       9        0.0%
   888 ;;BITBANK2            60      0       0      10        0.0%
   889 ;;BANK2               60      0       0      11        0.0%
   890 ;;DATA                 0      0       0      12        0.0%
   891                           
   892                           	global	_main
   893                           psect	maintext,global,class=CODE,delta=2
   894                           global __pmaintext
   895  03C9                     __pmaintext:
   896                           
   897 ;; *************** function _main *****************
   898 ;; Defined at:
   899 ;;		line 145 in file "C:\Users\chait\Desktop\Project\BitBanging GPIO\uart_check.c"
   900 ;; Parameters:    Size  Location     Type
   901 ;;		None
   902 ;; Auto vars:     Size  Location     Type
   903 ;;  addr            2   26[BANK0 ] unsigned int 
   904 ;;  val             1   32[BANK0 ] unsigned char 
   905 ;;  expected        1   29[BANK0 ] unsigned char 
   906 ;;  addr            2   24[BANK0 ] unsigned int 
   907 ;;  val             1   28[BANK0 ] unsigned char 
   908 ;;  i               1   31[BANK0 ] unsigned char 
   909 ;;  i               1   30[BANK0 ] unsigned char 
   910 ;;  err             1   23[BANK0 ] unsigned char 
   911 ;; Return value:  Size  Location     Type
   912 ;;		None               void
   913 ;; Registers used:
   914 ;;		wreg, fsr0l, fsr0h, status,2, status,0, btemp+1, pclath, cstack
   915 ;; Tracked objects:
   916 ;;		On entry : 17F/0
   917 ;;		On exit  : 0/0
   918 ;;		Unchanged: 0/0
   919 ;; Data sizes:     COMMON   BANK0   BANK1   BANK3   BANK2
   920 ;;      Params:         0       0       0       0       0
   921 ;;      Locals:         0      12       0       0       0
   922 ;;      Temps:          0       2       0       0       0
   923 ;;      Totals:         0      14       0       0       0
   924 ;;Total ram usage:       14 bytes
   925 ;; Hardware stack levels required when called:    4
   926 ;; This function calls:
   927 ;;		_uart_init
   928 ;;		_printf
   929 ;;		_eeprom_write_byte
   930 ;;		_eeprom_read_byte
   931 ;; This function is called by:
   932 ;;		Startup code after reset
   933 ;; This function uses a non-reentrant model
   934 ;;
   935                           psect	maintext
   936                           	file	"C:\Users\chait\Desktop\Project\BitBanging GPIO\uart_check.c"
   937                           	line	145
   938                           	global	__size_of_main
   939  0139                     	__size_of_main	equ	__end_of_main-_main
   940                           	
   941  03C9                     _main:	
   942                           	opt	stack 4
   943                           ; Regs used in _main: [wreg-fsr0h+status,2+status,0+btemp+1+pclath+cstack]
   944                           	line	146
   945                           	
   946  03C9                     l4132:	
   947                           ;uart_check.c: 146: ANSEL = 0x00;
   948  03C9  1683               	bsf	status, 5	;RP0=1, select bank3
   949  03CA  1703               	bsf	status, 6	;RP1=1, select bank3
   950  03CB  0188               	clrf	(392)^0180h	;volatile
   951                           	line	147
   952                           ;uart_check.c: 147: ANSELH = 0x00;
   953  03CC  0189               	clrf	(393)^0180h	;volatile
   954                           	line	148
   955                           	
   956  03CD                     l4134:	
   957                           ;uart_check.c: 148: TRISB3 = 0;
   958  03CD  1683               	bsf	status, 5	;RP0=1, select bank1
   959  03CE  1303               	bcf	status, 6	;RP1=0, select bank1
   960  03CF  1186               	bcf	(1075/8)^080h,(1075)&7
   961                           	line	149
   962                           	
   963  03D0                     l4136:	
   964                           ;uart_check.c: 149: TRISB4 = 0;
   965  03D0  1206               	bcf	(1076/8)^080h,(1076)&7
   966                           	line	150
   967                           	
   968  03D1                     l4138:	
   969                           ;uart_check.c: 150: uart_init();
   970  03D1  120A  118A  2160   	fcall	_uart_init
              120A  118A         
   971                           	line	152
   972                           	
   973  03D6                     l4140:	
   974                           ;uart_check.c: 152: printf("\r\n== EEPROM Test @ RB3(SDA), RB4(SCL) ==\r\n");
   975  03D6  3024               	movlw	low(STR_1|8000h)
   976  03D7  1283               	bcf	status, 5	;RP0=0, select bank0
   977  03D8  1303               	bcf	status, 6	;RP1=0, select bank0
   978  03D9  00A0               	movwf	(?_printf)
   979  03DA  3088               	movlw	high(STR_1|8000h)
   980  03DB  00A1               	movwf	((?_printf))+1
   981  03DC  120A  118A  2502   	fcall	_printf
              120A  118A         
   982                           	line	155
   983                           	
   984  03E1                     l4142:	
   985                           ;uart_check.c: 155: printf("Writing AJ to 0x00000x0009...\r\n");
   986  03E1  304F               	movlw	low(STR_2|8000h)
   987  03E2  1283               	bcf	status, 5	;RP0=0, select bank0
   988  03E3  1303               	bcf	status, 6	;RP1=0, select bank0
   989  03E4  00A0               	movwf	(?_printf)
   990  03E5  3088               	movlw	high(STR_2|8000h)
   991  03E6  00A1               	movwf	((?_printf))+1
   992  03E7  120A  118A  2502   	fcall	_printf
              120A  118A         
   993                           	line	156
   994                           	
   995  03EC                     l4144:	
   996                           ;uart_check.c: 156: for (char i = 0; i < 10; i++) {
   997  03EC  1283               	bcf	status, 5	;RP0=0, select bank0
   998  03ED  1303               	bcf	status, 6	;RP1=0, select bank0
   999  03EE  01BE               	clrf	(main@i)
  1000                           	
  1001  03EF                     l4146:	
  1002  03EF  300A               	movlw	(0Ah)
  1003  03F0  023E               	subwf	(main@i),w
  1004  03F1  1C03               	skipc
  1005  03F2  2BF4               	goto	u3311
  1006  03F3  2BF5               	goto	u3310
  1007  03F4                     u3311:
  1008  03F4  2BF7               	goto	l4150
  1009  03F5                     u3310:
  1010  03F5  2C54               	goto	l4166
  1011                           	
  1012  03F6                     l4148:	
  1013  03F6  2C54               	goto	l4166
  1014                           	
  1015  03F7                     l1022:	
  1016                           	line	157
  1017                           	
  1018  03F7                     l4150:	
  1019                           ;uart_check.c: 157: unsigned int addr = i;
  1020  03F7  083E               	movf	(main@i),w
  1021  03F8  00B3               	movwf	(??_main+0)+0
  1022  03F9  01B4               	clrf	(??_main+0)+0+1
  1023  03FA  0833               	movf	0+(??_main+0)+0,w
  1024  03FB  00B8               	movwf	(main@addr)
  1025  03FC  0834               	movf	1+(??_main+0)+0,w
  1026  03FD  00B9               	movwf	(main@addr+1)
  1027                           	line	158
  1028                           	
  1029  03FE                     l4152:	
  1030                           ;uart_check.c: 158: char val = 'A' + i;
  1031  03FE  083E               	movf	(main@i),w
  1032  03FF  3E41               	addlw	041h
  1033  0400  00B3               	movwf	(??_main+0)+0
  1034  0401  0833               	movf	(??_main+0)+0,w
  1035  0402  00BC               	movwf	(main@val)
  1036                           	line	159
  1037                           	
  1038  0403                     l4154:	
  1039                           ;uart_check.c: 159: printf("Writing '%c' to 0x%04X... ", val, addr);
  1040  0403  308F               	movlw	low(STR_3|8000h)
  1041  0404  00A0               	movwf	(?_printf)
  1042  0405  3088               	movlw	high(STR_3|8000h)
  1043  0406  00A1               	movwf	((?_printf))+1
  1044  0407  083C               	movf	(main@val),w
  1045  0408  00B3               	movwf	(??_main+0)+0
  1046  0409  01B4               	clrf	(??_main+0)+0+1
  1047  040A  0833               	movf	0+(??_main+0)+0,w
  1048  040B  00A2               	movwf	0+(?_printf)+02h
  1049  040C  0834               	movf	1+(??_main+0)+0,w
  1050  040D  00A3               	movwf	1+(?_printf)+02h
  1051  040E  0839               	movf	(main@addr+1),w
  1052  040F  01A5               	clrf	1+(?_printf)+04h
  1053  0410  07A5               	addwf	1+(?_printf)+04h
  1054  0411  0838               	movf	(main@addr),w
  1055  0412  01A4               	clrf	0+(?_printf)+04h
  1056  0413  07A4               	addwf	0+(?_printf)+04h
  1057                           
  1058  0414  120A  118A  2502   	fcall	_printf
              120A  118A         
  1059                           	line	160
  1060                           	
  1061  0419                     l4156:	
  1062                           ;uart_check.c: 160: if (eeprom_write_byte(addr, val) == 0)
  1063  0419  1283               	bcf	status, 5	;RP0=0, select bank0
  1064  041A  1303               	bcf	status, 6	;RP1=0, select bank0
  1065  041B  0839               	movf	(main@addr+1),w
  1066  041C  01F6               	clrf	(?_eeprom_write_byte+1)
  1067  041D  07F6               	addwf	(?_eeprom_write_byte+1)
  1068  041E  0838               	movf	(main@addr),w
  1069  041F  01F5               	clrf	(?_eeprom_write_byte)
  1070  0420  07F5               	addwf	(?_eeprom_write_byte)
  1071                           
  1072  0421  083C               	movf	(main@val),w
  1073  0422  00B3               	movwf	(??_main+0)+0
  1074  0423  0833               	movf	(??_main+0)+0,w
  1075  0424  00F7               	movwf	0+(?_eeprom_write_byte)+02h
  1076  0425  120A  118A  231D   	fcall	_eeprom_write_byte
              120A  118A         
  1077  042A  3800               	iorlw	0
  1078  042B  1D03               	skipz
  1079  042C  2C2E               	goto	u3321
  1080  042D  2C2F               	goto	u3320
  1081  042E                     u3321:
  1082  042E  2C3B               	goto	l4160
  1083  042F                     u3320:
  1084                           	line	161
  1085                           	
  1086  042F                     l4158:	
  1087                           ;uart_check.c: 161: printf("OK\r\n");
  1088  042F  301E               	movlw	low(STR_4|8000h)
  1089  0430  1283               	bcf	status, 5	;RP0=0, select bank0
  1090  0431  1303               	bcf	status, 6	;RP1=0, select bank0
  1091  0432  00A0               	movwf	(?_printf)
  1092  0433  3089               	movlw	high(STR_4|8000h)
  1093  0434  00A1               	movwf	((?_printf))+1
  1094  0435  120A  118A  2502   	fcall	_printf
              120A  118A         
  1095  043A  2C47               	goto	l4162
  1096                           	line	162
  1097                           	
  1098  043B                     l1024:	
  1099                           	line	163
  1100                           	
  1101  043B                     l4160:	
  1102                           ;uart_check.c: 162: else
  1103                           ;uart_check.c: 163: printf("FAIL\r\n");
  1104  043B  3011               	movlw	low(STR_5|8000h)
  1105  043C  1283               	bcf	status, 5	;RP0=0, select bank0
  1106  043D  1303               	bcf	status, 6	;RP1=0, select bank0
  1107  043E  00A0               	movwf	(?_printf)
  1108  043F  3089               	movlw	high(STR_5|8000h)
  1109  0440  00A1               	movwf	((?_printf))+1
  1110  0441  120A  118A  2502   	fcall	_printf
              120A  118A         
  1111  0446  2C47               	goto	l4162
  1112                           	
  1113  0447                     l1025:	
  1114                           	line	156
  1115                           	
  1116  0447                     l4162:	
  1117  0447  3001               	movlw	(01h)
  1118  0448  1283               	bcf	status, 5	;RP0=0, select bank0
  1119  0449  1303               	bcf	status, 6	;RP1=0, select bank0
  1120  044A  00B3               	movwf	(??_main+0)+0
  1121  044B  0833               	movf	(??_main+0)+0,w
  1122  044C  07BE               	addwf	(main@i),f
  1123                           	
  1124  044D                     l4164:	
  1125  044D  300A               	movlw	(0Ah)
  1126  044E  023E               	subwf	(main@i),w
  1127  044F  1C03               	skipc
  1128  0450  2C52               	goto	u3331
  1129  0451  2C53               	goto	u3330
  1130  0452                     u3331:
  1131  0452  2BF7               	goto	l4150
  1132  0453                     u3330:
  1133  0453  2C54               	goto	l4166
  1134                           	
  1135  0454                     l1023:	
  1136                           	line	167
  1137                           	
  1138  0454                     l4166:	
  1139                           ;uart_check.c: 164: }
  1140                           ;uart_check.c: 167: printf("\r\nVerifying data...\r\n");
  1141  0454  30AA               	movlw	low(STR_6|8000h)
  1142  0455  00A0               	movwf	(?_printf)
  1143  0456  3088               	movlw	high(STR_6|8000h)
  1144  0457  00A1               	movwf	((?_printf))+1
  1145  0458  120A  118A  2502   	fcall	_printf
              120A  118A         
  1146                           	line	168
  1147                           	
  1148  045D                     l4168:	
  1149                           ;uart_check.c: 168: unsigned char err = 0;
  1150  045D  1283               	bcf	status, 5	;RP0=0, select bank0
  1151  045E  1303               	bcf	status, 6	;RP1=0, select bank0
  1152  045F  01B7               	clrf	(main@err)
  1153                           	line	169
  1154                           	
  1155  0460                     l4170:	
  1156                           ;uart_check.c: 169: for (char i = 0; i < 10; i++) {
  1157  0460  01BF               	clrf	(main@i_1739)
  1158                           	
  1159  0461                     l4172:	
  1160  0461  300A               	movlw	(0Ah)
  1161  0462  023F               	subwf	(main@i_1739),w
  1162  0463  1C03               	skipc
  1163  0464  2C66               	goto	u3341
  1164  0465  2C67               	goto	u3340
  1165  0466                     u3341:
  1166  0466  2C69               	goto	l4176
  1167  0467                     u3340:
  1168  0467  2CED               	goto	l4204
  1169                           	
  1170  0468                     l4174:	
  1171  0468  2CED               	goto	l4204
  1172                           	
  1173  0469                     l1026:	
  1174                           	line	171
  1175                           	
  1176  0469                     l4176:	
  1177                           ;uart_check.c: 170: unsigned char val;
  1178                           ;uart_check.c: 171: unsigned int addr = i;
  1179  0469  083F               	movf	(main@i_1739),w
  1180  046A  00B3               	movwf	(??_main+0)+0
  1181  046B  01B4               	clrf	(??_main+0)+0+1
  1182  046C  0833               	movf	0+(??_main+0)+0,w
  1183  046D  00BA               	movwf	(main@addr_1741)
  1184  046E  0834               	movf	1+(??_main+0)+0,w
  1185  046F  00BB               	movwf	(main@addr_1741+1)
  1186                           	line	172
  1187                           	
  1188  0470                     l4178:	
  1189                           ;uart_check.c: 172: char expected = 'A' + i;
  1190  0470  083F               	movf	(main@i_1739),w
  1191  0471  3E41               	addlw	041h
  1192  0472  00B3               	movwf	(??_main+0)+0
  1193  0473  0833               	movf	(??_main+0)+0,w
  1194  0474  00BD               	movwf	(main@expected)
  1195                           	line	173
  1196                           	
  1197  0475                     l4180:	
  1198                           ;uart_check.c: 173: printf("Reading 0x%04X... ", addr);
  1199  0475  30C0               	movlw	low(STR_7|8000h)
  1200  0476  00A0               	movwf	(?_printf)
  1201  0477  3088               	movlw	high(STR_7|8000h)
  1202  0478  00A1               	movwf	((?_printf))+1
  1203  0479  083B               	movf	(main@addr_1741+1),w
  1204  047A  01A3               	clrf	1+(?_printf)+02h
  1205  047B  07A3               	addwf	1+(?_printf)+02h
  1206  047C  083A               	movf	(main@addr_1741),w
  1207  047D  01A2               	clrf	0+(?_printf)+02h
  1208  047E  07A2               	addwf	0+(?_printf)+02h
  1209                           
  1210  047F  120A  118A  2502   	fcall	_printf
              120A  118A         
  1211                           	line	174
  1212                           	
  1213  0484                     l4182:	
  1214                           ;uart_check.c: 174: if (eeprom_read_byte(addr, &val) == 0) {
  1215  0484  1283               	bcf	status, 5	;RP0=0, select bank0
  1216  0485  1303               	bcf	status, 6	;RP1=0, select bank0
  1217  0486  083B               	movf	(main@addr_1741+1),w
  1218  0487  01F6               	clrf	(?_eeprom_read_byte+1)
  1219  0488  07F6               	addwf	(?_eeprom_read_byte+1)
  1220  0489  083A               	movf	(main@addr_1741),w
  1221  048A  01F5               	clrf	(?_eeprom_read_byte)
  1222  048B  07F5               	addwf	(?_eeprom_read_byte)
  1223                           
  1224  048C  3040               	movlw	(main@val_1740)&0ffh
  1225  048D  00B3               	movwf	(??_main+0)+0
  1226  048E  0833               	movf	(??_main+0)+0,w
  1227  048F  00F7               	movwf	0+(?_eeprom_read_byte)+02h
  1228  0490  120A  118A  236F   	fcall	_eeprom_read_byte
              120A  118A         
  1229  0495  3800               	iorlw	0
  1230  0496  1D03               	skipz
  1231  0497  2C99               	goto	u3351
  1232  0498  2C9A               	goto	u3350
  1233  0499                     u3351:
  1234  0499  2CD0               	goto	l4196
  1235  049A                     u3350:
  1236                           	line	175
  1237                           	
  1238  049A                     l4184:	
  1239                           ;uart_check.c: 175: printf("Got '%c'  %s\r\n", val, (val == expected) ? "Match" : "Mism
                                 atch!");
  1240  049A  1283               	bcf	status, 5	;RP0=0, select bank0
  1241  049B  1303               	bcf	status, 6	;RP1=0, select bank0
  1242  049C  0840               	movf	(main@val_1740),w
  1243  049D  063D               	xorwf	(main@expected),w
  1244  049E  1903               	skipnz
  1245  049F  2CA1               	goto	u3361
  1246  04A0  2CA2               	goto	u3360
  1247  04A1                     u3361:
  1248  04A1  2CA7               	goto	l4188
  1249  04A2                     u3360:
  1250                           	
  1251  04A2                     l4186:	
  1252  04A2  3000               	movlw	low(STR_10|8000h)
  1253  04A3  00B5               	movwf	(_main$1747)
  1254  04A4  3089               	movlw	high(STR_10|8000h)
  1255  04A5  00B6               	movwf	((_main$1747))+1
  1256  04A6  2CAC               	goto	l4190
  1257                           	
  1258  04A7                     l1030:	
  1259                           	
  1260  04A7                     l4188:	
  1261  04A7  3018               	movlw	low(STR_9|8000h)
  1262  04A8  00B5               	movwf	(_main$1747)
  1263  04A9  3089               	movlw	high(STR_9|8000h)
  1264  04AA  00B6               	movwf	((_main$1747))+1
  1265  04AB  2CAC               	goto	l4190
  1266                           	
  1267  04AC                     l1032:	
  1268                           	
  1269  04AC                     l4190:	
  1270  04AC  30E4               	movlw	low(STR_8|8000h)
  1271  04AD  00A0               	movwf	(?_printf)
  1272  04AE  3088               	movlw	high(STR_8|8000h)
  1273  04AF  00A1               	movwf	((?_printf))+1
  1274  04B0  0840               	movf	(main@val_1740),w
  1275  04B1  00B3               	movwf	(??_main+0)+0
  1276  04B2  01B4               	clrf	(??_main+0)+0+1
  1277  04B3  0833               	movf	0+(??_main+0)+0,w
  1278  04B4  00A2               	movwf	0+(?_printf)+02h
  1279  04B5  0834               	movf	1+(??_main+0)+0,w
  1280  04B6  00A3               	movwf	1+(?_printf)+02h
  1281  04B7  0836               	movf	(_main$1747+1),w
  1282  04B8  01A5               	clrf	(1+?_printf+04h)
  1283  04B9  07A5               	addwf	(1+?_printf+04h)
  1284  04BA  0835               	movf	(_main$1747),w
  1285  04BB  01A4               	clrf	(0+?_printf+04h)
  1286  04BC  07A4               	addwf	(0+?_printf+04h)
  1287                           
  1288  04BD  120A  118A  2502   	fcall	_printf
              120A  118A         
  1289                           	line	176
  1290                           	
  1291  04C2                     l4192:	
  1292                           ;uart_check.c: 176: if (val != expected) err++;
  1293  04C2  1283               	bcf	status, 5	;RP0=0, select bank0
  1294  04C3  1303               	bcf	status, 6	;RP1=0, select bank0
  1295  04C4  0840               	movf	(main@val_1740),w
  1296  04C5  063D               	xorwf	(main@expected),w
  1297  04C6  1903               	skipnz
  1298  04C7  2CC9               	goto	u3371
  1299  04C8  2CCA               	goto	u3370
  1300  04C9                     u3371:
  1301  04C9  2CE2               	goto	l4200
  1302  04CA                     u3370:
  1303                           	
  1304  04CA                     l4194:	
  1305  04CA  3001               	movlw	(01h)
  1306  04CB  00B3               	movwf	(??_main+0)+0
  1307  04CC  0833               	movf	(??_main+0)+0,w
  1308  04CD  07B7               	addwf	(main@err),f
  1309  04CE  2CE2               	goto	l4200
  1310                           	
  1311  04CF                     l1033:	
  1312                           	line	177
  1313                           ;uart_check.c: 177: } else {
  1314  04CF  2CE2               	goto	l4200
  1315                           	
  1316  04D0                     l1028:	
  1317                           	line	178
  1318                           	
  1319  04D0                     l4196:	
  1320                           ;uart_check.c: 178: printf("Read Fail\r\n");
  1321  04D0  30F4               	movlw	low(STR_11|8000h)
  1322  04D1  1283               	bcf	status, 5	;RP0=0, select bank0
  1323  04D2  1303               	bcf	status, 6	;RP1=0, select bank0
  1324  04D3  00A0               	movwf	(?_printf)
  1325  04D4  3088               	movlw	high(STR_11|8000h)
  1326  04D5  00A1               	movwf	((?_printf))+1
  1327  04D6  120A  118A  2502   	fcall	_printf
              120A  118A         
  1328                           	line	179
  1329                           	
  1330  04DB                     l4198:	
  1331                           ;uart_check.c: 179: err++;
  1332  04DB  3001               	movlw	(01h)
  1333  04DC  1283               	bcf	status, 5	;RP0=0, select bank0
  1334  04DD  1303               	bcf	status, 6	;RP1=0, select bank0
  1335  04DE  00B3               	movwf	(??_main+0)+0
  1336  04DF  0833               	movf	(??_main+0)+0,w
  1337  04E0  07B7               	addwf	(main@err),f
  1338  04E1  2CE2               	goto	l4200
  1339                           	line	180
  1340                           	
  1341  04E2                     l1034:	
  1342                           	line	169
  1343                           	
  1344  04E2                     l4200:	
  1345  04E2  3001               	movlw	(01h)
  1346  04E3  00B3               	movwf	(??_main+0)+0
  1347  04E4  0833               	movf	(??_main+0)+0,w
  1348  04E5  07BF               	addwf	(main@i_1739),f
  1349                           	
  1350  04E6                     l4202:	
  1351  04E6  300A               	movlw	(0Ah)
  1352  04E7  023F               	subwf	(main@i_1739),w
  1353  04E8  1C03               	skipc
  1354  04E9  2CEB               	goto	u3381
  1355  04EA  2CEC               	goto	u3380
  1356  04EB                     u3381:
  1357  04EB  2C69               	goto	l4176
  1358  04EC                     u3380:
  1359  04EC  2CED               	goto	l4204
  1360                           	
  1361  04ED                     l1027:	
  1362                           	line	184
  1363                           	
  1364  04ED                     l4204:	
  1365                           ;uart_check.c: 180: }
  1366                           ;uart_check.c: 181: }
  1367                           ;uart_check.c: 184: printf("\r\nTest Complete. Errors: %u\r\n", err);
  1368  04ED  3071               	movlw	low(STR_12|8000h)
  1369  04EE  00A0               	movwf	(?_printf)
  1370  04EF  3088               	movlw	high(STR_12|8000h)
  1371  04F0  00A1               	movwf	((?_printf))+1
  1372  04F1  0837               	movf	(main@err),w
  1373  04F2  00B3               	movwf	(??_main+0)+0
  1374  04F3  01B4               	clrf	(??_main+0)+0+1
  1375  04F4  0833               	movf	0+(??_main+0)+0,w
  1376  04F5  00A2               	movwf	0+(?_printf)+02h
  1377  04F6  0834               	movf	1+(??_main+0)+0,w
  1378  04F7  00A3               	movwf	1+(?_printf)+02h
  1379  04F8  120A  118A  2502   	fcall	_printf
              120A  118A         
  1380  04FD  2CFE               	goto	l1036
  1381                           	line	186
  1382                           ;uart_check.c: 186: while(1);
  1383                           	
  1384  04FE                     l1035:	
  1385                           	
  1386  04FE                     l1036:	
  1387  04FE  2CFE               	goto	l1036
  1388                           	
  1389  04FF                     l1037:	
  1390                           	line	187
  1391                           	
  1392  04FF                     l1038:	
  1393                           	global	start
  1394  04FF  120A  118A  2800   	ljmp	start
  1395                           	opt stack 0
  1396                           GLOBAL	__end_of_main
  1397  0502                     	__end_of_main:
  1398 ;; =============== function _main ends ============
  1399                           
  1400                           	signat	_main,88
  1401                           	global	_eeprom_read_byte
  1402                           psect	text386,local,class=CODE,delta=2
  1403                           global __ptext386
  1404  036F                     __ptext386:
  1405                           
  1406 ;; *************** function _eeprom_read_byte *****************
  1407 ;; Defined at:
  1408 ;;		line 124 in file "C:\Users\chait\Desktop\Project\BitBanging GPIO\uart_check.c"
  1409 ;; Parameters:    Size  Location     Type
  1410 ;;  addr            2    5[COMMON] unsigned int 
  1411 ;;  data            1    7[COMMON] PTR unsigned char 
  1412 ;;		 -> main@val_1740(1), 
  1413 ;; Auto vars:     Size  Location     Type
  1414 ;;		None
  1415 ;; Return value:  Size  Location     Type
  1416 ;;                  1    wreg      unsigned char 
  1417 ;; Registers used:
  1418 ;;		wreg, fsr0l, fsr0h, status,2, status,0, pclath, cstack
  1419 ;; Tracked objects:
  1420 ;;		On entry : 0/0
  1421 ;;		On exit  : 0/0
  1422 ;;		Unchanged: 0/0
  1423 ;; Data sizes:     COMMON   BANK0   BANK1   BANK3   BANK2
  1424 ;;      Params:         3       0       0       0       0
  1425 ;;      Locals:         0       0       0       0       0
  1426 ;;      Temps:          1       0       0       0       0
  1427 ;;      Totals:         4       0       0       0       0
  1428 ;;Total ram usage:        4 bytes
  1429 ;; Hardware stack levels used:    1
  1430 ;; Hardware stack levels required when called:    3
  1431 ;; This function calls:
  1432 ;;		_i2c_start
  1433 ;;		_i2c_write_byte
  1434 ;;		_i2c_read_byte
  1435 ;;		_i2c_stop
  1436 ;; This function is called by:
  1437 ;;		_main
  1438 ;; This function uses a non-reentrant model
  1439 ;;
  1440                           psect	text386
  1441                           	file	"C:\Users\chait\Desktop\Project\BitBanging GPIO\uart_check.c"
  1442                           	line	124
  1443                           	global	__size_of_eeprom_read_byte
  1444  005A                     	__size_of_eeprom_read_byte	equ	__end_of_eeprom_read_byte-_eeprom_read_byte
  1445                           	
  1446  036F                     _eeprom_read_byte:	
  1447                           	opt	stack 4
  1448                           ; Regs used in _eeprom_read_byte: [wreg-fsr0h+status,2+status,0+pclath+cstack]
  1449                           	line	125
  1450                           	
  1451  036F                     l4098:	
  1452                           ;uart_check.c: 125: i2c_start();
  1453  036F  120A  118A  219D   	fcall	_i2c_start
              120A  118A         
  1454                           	line	126
  1455                           	
  1456  0374                     l4100:	
  1457                           ;uart_check.c: 126: if (i2c_write_byte(0xA0 | 0x00)) goto fail;
  1458  0374  30A0               	movlw	(0A0h)
  1459  0375  120A  118A  2219   	fcall	_i2c_write_byte
              120A  118A         
  1460  037A  3A00               	xorlw	0
  1461  037B  1903               	skipnz
  1462  037C  2B7E               	goto	u3271
  1463  037D  2B7F               	goto	u3270
  1464  037E                     u3271:
  1465  037E  2B81               	goto	l4104
  1466  037F                     u3270:
  1467  037F  2BC1               	goto	l4126
  1468                           	
  1469  0380                     l4102:	
  1470  0380  2BC1               	goto	l4126
  1471                           	
  1472  0381                     l1014:	
  1473                           	line	127
  1474                           	
  1475  0381                     l4104:	
  1476                           ;uart_check.c: 127: if (i2c_write_byte((addr >> 8) & 0xFF)) goto fail;
  1477  0381  0876               	movf	(eeprom_read_byte@addr+1),w
  1478  0382  120A  118A  2219   	fcall	_i2c_write_byte
              120A  118A         
  1479  0387  3A00               	xorlw	0
  1480  0388  1903               	skipnz
  1481  0389  2B8B               	goto	u3281
  1482  038A  2B8C               	goto	u3280
  1483  038B                     u3281:
  1484  038B  2B8E               	goto	l4108
  1485  038C                     u3280:
  1486  038C  2BC1               	goto	l4126
  1487                           	
  1488  038D                     l4106:	
  1489  038D  2BC1               	goto	l4126
  1490                           	
  1491  038E                     l1016:	
  1492                           	line	128
  1493                           	
  1494  038E                     l4108:	
  1495                           ;uart_check.c: 128: if (i2c_write_byte(addr & 0xFF)) goto fail;
  1496  038E  0875               	movf	(eeprom_read_byte@addr),w
  1497  038F  120A  118A  2219   	fcall	_i2c_write_byte
              120A  118A         
  1498  0394  3A00               	xorlw	0
  1499  0395  1903               	skipnz
  1500  0396  2B98               	goto	u3291
  1501  0397  2B99               	goto	u3290
  1502  0398                     u3291:
  1503  0398  2B9B               	goto	l4112
  1504  0399                     u3290:
  1505  0399  2BC1               	goto	l4126
  1506                           	
  1507  039A                     l4110:	
  1508  039A  2BC1               	goto	l4126
  1509                           	
  1510  039B                     l1017:	
  1511                           	line	130
  1512                           	
  1513  039B                     l4112:	
  1514                           ;uart_check.c: 130: i2c_start();
  1515  039B  120A  118A  219D   	fcall	_i2c_start
              120A  118A         
  1516                           	line	131
  1517                           	
  1518  03A0                     l4114:	
  1519                           ;uart_check.c: 131: if (i2c_write_byte(0xA0 | 0x01)) goto fail;
  1520  03A0  30A1               	movlw	(0A1h)
  1521  03A1  120A  118A  2219   	fcall	_i2c_write_byte
              120A  118A         
  1522  03A6  3A00               	xorlw	0
  1523  03A7  1903               	skipnz
  1524  03A8  2BAA               	goto	u3301
  1525  03A9  2BAB               	goto	u3300
  1526  03AA                     u3301:
  1527  03AA  2BAD               	goto	l4118
  1528  03AB                     u3300:
  1529  03AB  2BC1               	goto	l4126
  1530                           	
  1531  03AC                     l4116:	
  1532  03AC  2BC1               	goto	l4126
  1533                           	
  1534  03AD                     l1018:	
  1535                           	line	133
  1536                           	
  1537  03AD                     l4118:	
  1538                           ;uart_check.c: 133: *data = i2c_read_byte(1);
  1539  03AD  3001               	movlw	(01h)
  1540  03AE  120A  118A  2252   	fcall	_i2c_read_byte
              120A  118A         
  1541  03B3  00F8               	movwf	(??_eeprom_read_byte+0)+0
  1542  03B4  0877               	movf	(eeprom_read_byte@data),w
  1543  03B5  0084               	movwf	fsr0
  1544  03B6  0878               	movf	(??_eeprom_read_byte+0)+0,w
  1545  03B7  1383               	bcf	status, 7	;select IRP bank0
  1546  03B8  0080               	movwf	indf
  1547                           	line	134
  1548                           	
  1549  03B9                     l4120:	
  1550                           ;uart_check.c: 134: i2c_stop();
  1551  03B9  120A  118A  2185   	fcall	_i2c_stop
              120A  118A         
  1552                           	line	135
  1553                           	
  1554  03BE                     l4122:	
  1555                           ;uart_check.c: 135: return 0;
  1556  03BE  3000               	movlw	(0)
  1557  03BF  2BC8               	goto	l1019
  1558                           	
  1559  03C0                     l4124:	
  1560  03C0  2BC8               	goto	l1019
  1561                           	line	136
  1562                           ;uart_check.c: 136: fail:
  1563                           	
  1564  03C1                     l1015:	
  1565                           	line	137
  1566                           	
  1567  03C1                     l4126:	
  1568                           ;uart_check.c: 137: i2c_stop();
  1569  03C1  120A  118A  2185   	fcall	_i2c_stop
              120A  118A         
  1570                           	line	138
  1571                           	
  1572  03C6                     l4128:	
  1573                           ;uart_check.c: 138: return 1;
  1574  03C6  3001               	movlw	(01h)
  1575  03C7  2BC8               	goto	l1019
  1576                           	
  1577  03C8                     l4130:	
  1578                           	line	139
  1579                           	
  1580  03C8                     l1019:	
  1581  03C8  0008               	return
  1582                           	opt stack 0
  1583                           GLOBAL	__end_of_eeprom_read_byte
  1584  03C9                     	__end_of_eeprom_read_byte:
  1585 ;; =============== function _eeprom_read_byte ends ============
  1586                           
  1587                           	signat	_eeprom_read_byte,8313
  1588                           	global	_eeprom_write_byte
  1589                           psect	text387,local,class=CODE,delta=2
  1590                           global __ptext387
  1591  031D                     __ptext387:
  1592                           
  1593 ;; *************** function _eeprom_write_byte *****************
  1594 ;; Defined at:
  1595 ;;		line 110 in file "C:\Users\chait\Desktop\Project\BitBanging GPIO\uart_check.c"
  1596 ;; Parameters:    Size  Location     Type
  1597 ;;  addr            2    5[COMMON] unsigned int 
  1598 ;;  data            1    7[COMMON] unsigned char 
  1599 ;; Auto vars:     Size  Location     Type
  1600 ;;		None
  1601 ;; Return value:  Size  Location     Type
  1602 ;;                  1    wreg      unsigned char 
  1603 ;; Registers used:
  1604 ;;		wreg, status,2, status,0, pclath, cstack
  1605 ;; Tracked objects:
  1606 ;;		On entry : 0/0
  1607 ;;		On exit  : 0/0
  1608 ;;		Unchanged: 0/0
  1609 ;; Data sizes:     COMMON   BANK0   BANK1   BANK3   BANK2
  1610 ;;      Params:         3       0       0       0       0
  1611 ;;      Locals:         0       0       0       0       0
  1612 ;;      Temps:          2       0       0       0       0
  1613 ;;      Totals:         5       0       0       0       0
  1614 ;;Total ram usage:        5 bytes
  1615 ;; Hardware stack levels used:    1
  1616 ;; Hardware stack levels required when called:    3
  1617 ;; This function calls:
  1618 ;;		_i2c_start
  1619 ;;		_i2c_write_byte
  1620 ;;		_i2c_stop
  1621 ;; This function is called by:
  1622 ;;		_main
  1623 ;; This function uses a non-reentrant model
  1624 ;;
  1625                           psect	text387
  1626                           	file	"C:\Users\chait\Desktop\Project\BitBanging GPIO\uart_check.c"
  1627                           	line	110
  1628                           	global	__size_of_eeprom_write_byte
  1629  0052                     	__size_of_eeprom_write_byte	equ	__end_of_eeprom_write_byte-_eeprom_write_byte
  1630                           	
  1631  031D                     _eeprom_write_byte:	
  1632                           	opt	stack 4
  1633                           ; Regs used in _eeprom_write_byte: [wreg+status,2+status,0+pclath+cstack]
  1634                           	line	111
  1635                           	
  1636  031D                     l4066:	
  1637                           ;uart_check.c: 111: i2c_start();
  1638  031D  120A  118A  219D   	fcall	_i2c_start
              120A  118A         
  1639                           	line	112
  1640                           	
  1641  0322                     l4068:	
  1642                           ;uart_check.c: 112: if (i2c_write_byte(0xA0 | 0x00)) goto fail;
  1643  0322  30A0               	movlw	(0A0h)
  1644  0323  120A  118A  2219   	fcall	_i2c_write_byte
              120A  118A         
  1645  0328  3A00               	xorlw	0
  1646  0329  1903               	skipnz
  1647  032A  2B2C               	goto	u3231
  1648  032B  2B2D               	goto	u3230
  1649  032C                     u3231:
  1650  032C  2B2F               	goto	l4072
  1651  032D                     u3230:
  1652  032D  2B67               	goto	l4092
  1653                           	
  1654  032E                     l4070:	
  1655  032E  2B67               	goto	l4092
  1656                           	
  1657  032F                     l1006:	
  1658                           	line	113
  1659                           	
  1660  032F                     l4072:	
  1661                           ;uart_check.c: 113: if (i2c_write_byte((addr >> 8) & 0xFF)) goto fail;
  1662  032F  0876               	movf	(eeprom_write_byte@addr+1),w
  1663  0330  120A  118A  2219   	fcall	_i2c_write_byte
              120A  118A         
  1664  0335  3A00               	xorlw	0
  1665  0336  1903               	skipnz
  1666  0337  2B39               	goto	u3241
  1667  0338  2B3A               	goto	u3240
  1668  0339                     u3241:
  1669  0339  2B3C               	goto	l4076
  1670  033A                     u3240:
  1671  033A  2B67               	goto	l4092
  1672                           	
  1673  033B                     l4074:	
  1674  033B  2B67               	goto	l4092
  1675                           	
  1676  033C                     l1008:	
  1677                           	line	114
  1678                           	
  1679  033C                     l4076:	
  1680                           ;uart_check.c: 114: if (i2c_write_byte(addr & 0xFF)) goto fail;
  1681  033C  0875               	movf	(eeprom_write_byte@addr),w
  1682  033D  120A  118A  2219   	fcall	_i2c_write_byte
              120A  118A         
  1683  0342  3A00               	xorlw	0
  1684  0343  1903               	skipnz
  1685  0344  2B46               	goto	u3251
  1686  0345  2B47               	goto	u3250
  1687  0346                     u3251:
  1688  0346  2B49               	goto	l4080
  1689  0347                     u3250:
  1690  0347  2B67               	goto	l4092
  1691                           	
  1692  0348                     l4078:	
  1693  0348  2B67               	goto	l4092
  1694                           	
  1695  0349                     l1009:	
  1696                           	line	115
  1697                           	
  1698  0349                     l4080:	
  1699                           ;uart_check.c: 115: if (i2c_write_byte(data)) goto fail;
  1700  0349  0877               	movf	(eeprom_write_byte@data),w
  1701  034A  120A  118A  2219   	fcall	_i2c_write_byte
              120A  118A         
  1702  034F  3A00               	xorlw	0
  1703  0350  1903               	skipnz
  1704  0351  2B53               	goto	u3261
  1705  0352  2B54               	goto	u3260
  1706  0353                     u3261:
  1707  0353  2B56               	goto	l4084
  1708  0354                     u3260:
  1709  0354  2B67               	goto	l4092
  1710                           	
  1711  0355                     l4082:	
  1712  0355  2B67               	goto	l4092
  1713                           	
  1714  0356                     l1010:	
  1715                           	line	116
  1716                           	
  1717  0356                     l4084:	
  1718                           ;uart_check.c: 116: i2c_stop();
  1719  0356  120A  118A  2185   	fcall	_i2c_stop
              120A  118A         
  1720                           	line	117
  1721                           	
  1722  035B                     l4086:	
  1723                           ;uart_check.c: 117: _delay((unsigned long)((5)*(3570000/4000.0)));
  1724                           	opt asmopt_off
  1725  035B  3006               movlw	6
  1726  035C  00F9               movwf	((??_eeprom_write_byte+0)+0+1),f
  1727  035D  30CA               	movlw	202
  1728  035E  00F8               movwf	((??_eeprom_write_byte+0)+0),f
  1729  035F                     u3397:
  1730  035F  0BF8               	decfsz	((??_eeprom_write_byte+0)+0),f
  1731  0360  2B5F               	goto	u3397
  1732  0361  0BF9               	decfsz	((??_eeprom_write_byte+0)+0+1),f
  1733  0362  2B5F               	goto	u3397
  1734  0363  0064               	clrwdt
  1735                           opt asmopt_on
  1736                           
  1737                           	line	118
  1738                           	
  1739  0364                     l4088:	
  1740                           ;uart_check.c: 118: return 0;
  1741  0364  3000               	movlw	(0)
  1742  0365  2B6E               	goto	l1011
  1743                           	
  1744  0366                     l4090:	
  1745  0366  2B6E               	goto	l1011
  1746                           	line	119
  1747                           ;uart_check.c: 119: fail:
  1748                           	
  1749  0367                     l1007:	
  1750                           	line	120
  1751                           	
  1752  0367                     l4092:	
  1753                           ;uart_check.c: 120: i2c_stop();
  1754  0367  120A  118A  2185   	fcall	_i2c_stop
              120A  118A         
  1755                           	line	121
  1756                           	
  1757  036C                     l4094:	
  1758                           ;uart_check.c: 121: return 1;
  1759  036C  3001               	movlw	(01h)
  1760  036D  2B6E               	goto	l1011
  1761                           	
  1762  036E                     l4096:	
  1763                           	line	122
  1764                           	
  1765  036E                     l1011:	
  1766  036E  0008               	return
  1767                           	opt stack 0
  1768                           GLOBAL	__end_of_eeprom_write_byte
  1769  036F                     	__end_of_eeprom_write_byte:
  1770 ;; =============== function _eeprom_write_byte ends ============
  1771                           
  1772                           	signat	_eeprom_write_byte,8313
  1773                           	global	_i2c_read_byte
  1774                           psect	text388,local,class=CODE,delta=2
  1775                           global __ptext388
  1776  0252                     __ptext388:
  1777                           
  1778 ;; *************** function _i2c_read_byte *****************
  1779 ;; Defined at:
  1780 ;;		line 93 in file "C:\Users\chait\Desktop\Project\BitBanging GPIO\uart_check.c"
  1781 ;; Parameters:    Size  Location     Type
  1782 ;;  ack             1    wreg     unsigned char 
  1783 ;; Auto vars:     Size  Location     Type
  1784 ;;  ack             1    2[COMMON] unsigned char 
  1785 ;;  i               1    4[COMMON] unsigned char 
  1786 ;;  data            1    3[COMMON] unsigned char 
  1787 ;; Return value:  Size  Location     Type
  1788 ;;                  1    wreg      unsigned char 
  1789 ;; Registers used:
  1790 ;;		wreg, status,2, status,0, pclath, cstack
  1791 ;; Tracked objects:
  1792 ;;		On entry : 0/0
  1793 ;;		On exit  : 0/0
  1794 ;;		Unchanged: 0/0
  1795 ;; Data sizes:     COMMON   BANK0   BANK1   BANK3   BANK2
  1796 ;;      Params:         0       0       0       0       0
  1797 ;;      Locals:         3       0       0       0       0
  1798 ;;      Temps:          1       0       0       0       0
  1799 ;;      Totals:         4       0       0       0       0
  1800 ;;Total ram usage:        4 bytes
  1801 ;; Hardware stack levels used:    1
  1802 ;; Hardware stack levels required when called:    2
  1803 ;; This function calls:
  1804 ;;		_i2c_wait
  1805 ;;		_i2c_send_ack
  1806 ;; This function is called by:
  1807 ;;		_eeprom_read_byte
  1808 ;; This function uses a non-reentrant model
  1809 ;;
  1810                           psect	text388
  1811                           	file	"C:\Users\chait\Desktop\Project\BitBanging GPIO\uart_check.c"
  1812                           	line	93
  1813                           	global	__size_of_i2c_read_byte
  1814  0039                     	__size_of_i2c_read_byte	equ	__end_of_i2c_read_byte-_i2c_read_byte
  1815                           	
  1816  0252                     _i2c_read_byte:	
  1817                           	opt	stack 4
  1818                           ; Regs used in _i2c_read_byte: [wreg+status,2+status,0+pclath+cstack]
  1819                           ;i2c_read_byte@ack stored from wreg
  1820  0252  00F2               	movwf	(i2c_read_byte@ack)
  1821                           	line	94
  1822                           	
  1823  0253                     l4038:	
  1824                           ;uart_check.c: 94: unsigned char data = 0;
  1825  0253  01F3               	clrf	(i2c_read_byte@data)
  1826                           	line	95
  1827                           ;uart_check.c: 95: { TRISB3 = 1; };
  1828  0254  1683               	bsf	status, 5	;RP0=1, select bank1
  1829  0255  1303               	bcf	status, 6	;RP1=0, select bank1
  1830  0256  1586               	bsf	(1075/8)^080h,(1075)&7
  1831                           	line	96
  1832                           ;uart_check.c: 96: for (char i = 0; i < 8; i++) {
  1833  0257  01F4               	clrf	(i2c_read_byte@i)
  1834                           	
  1835  0258                     l4040:	
  1836  0258  3008               	movlw	(08h)
  1837  0259  0274               	subwf	(i2c_read_byte@i),w
  1838  025A  1C03               	skipc
  1839  025B  2A5D               	goto	u3201
  1840  025C  2A5E               	goto	u3200
  1841  025D                     u3201:
  1842  025D  2A60               	goto	l4044
  1843  025E                     u3200:
  1844  025E  2A82               	goto	l4060
  1845                           	
  1846  025F                     l4042:	
  1847  025F  2A82               	goto	l4060
  1848                           	
  1849  0260                     l1000:	
  1850                           	line	97
  1851                           	
  1852  0260                     l4044:	
  1853                           ;uart_check.c: 97: data <<= 1;
  1854  0260  1003               	clrc
  1855  0261  0DF3               	rlf	(i2c_read_byte@data),f
  1856                           
  1857                           	line	98
  1858                           	
  1859  0262                     l4046:	
  1860                           ;uart_check.c: 98: { RB4 = 1; i2c_wait(); };
  1861  0262  1283               	bcf	status, 5	;RP0=0, select bank0
  1862  0263  1303               	bcf	status, 6	;RP1=0, select bank0
  1863  0264  1606               	bsf	(52/8),(52)&7
  1864                           	
  1865  0265                     l4048:	
  1866  0265  120A  118A  214D   	fcall	_i2c_wait
              120A  118A         
  1867                           	line	99
  1868                           	
  1869  026A                     l4050:	
  1870                           ;uart_check.c: 99: if ((RB3)) data |= 1;
  1871  026A  1283               	bcf	status, 5	;RP0=0, select bank0
  1872  026B  1303               	bcf	status, 6	;RP1=0, select bank0
  1873  026C  1D86               	btfss	(51/8),(51)&7
  1874  026D  2A6F               	goto	u3211
  1875  026E  2A70               	goto	u3210
  1876  026F                     u3211:
  1877  026F  2A71               	goto	l1002
  1878  0270                     u3210:
  1879                           	
  1880  0270                     l4052:	
  1881  0270  1473               	bsf	(i2c_read_byte@data)+(0/8),(0)&7
  1882                           	
  1883  0271                     l1002:	
  1884                           	line	100
  1885                           ;uart_check.c: 100: { RB4 = 0; i2c_wait(); };
  1886  0271  1206               	bcf	(52/8),(52)&7
  1887                           	
  1888  0272                     l4054:	
  1889  0272  120A  118A  214D   	fcall	_i2c_wait
              120A  118A         
  1890                           	line	96
  1891                           	
  1892  0277                     l4056:	
  1893  0277  3001               	movlw	(01h)
  1894  0278  00F1               	movwf	(??_i2c_read_byte+0)+0
  1895  0279  0871               	movf	(??_i2c_read_byte+0)+0,w
  1896  027A  07F4               	addwf	(i2c_read_byte@i),f
  1897                           	
  1898  027B                     l4058:	
  1899  027B  3008               	movlw	(08h)
  1900  027C  0274               	subwf	(i2c_read_byte@i),w
  1901  027D  1C03               	skipc
  1902  027E  2A80               	goto	u3221
  1903  027F  2A81               	goto	u3220
  1904  0280                     u3221:
  1905  0280  2A60               	goto	l4044
  1906  0281                     u3220:
  1907  0281  2A82               	goto	l4060
  1908                           	
  1909  0282                     l1001:	
  1910                           	line	102
  1911                           	
  1912  0282                     l4060:	
  1913                           ;uart_check.c: 101: }
  1914                           ;uart_check.c: 102: i2c_send_ack(ack);
  1915  0282  0872               	movf	(i2c_read_byte@ack),w
  1916  0283  120A  118A  21D2   	fcall	_i2c_send_ack
              120A  118A         
  1917                           	line	103
  1918                           	
  1919  0288                     l4062:	
  1920                           ;uart_check.c: 103: return data;
  1921  0288  0873               	movf	(i2c_read_byte@data),w
  1922  0289  2A8A               	goto	l1003
  1923                           	
  1924  028A                     l4064:	
  1925                           	line	104
  1926                           	
  1927  028A                     l1003:	
  1928  028A  0008               	return
  1929                           	opt stack 0
  1930                           GLOBAL	__end_of_i2c_read_byte
  1931  028B                     	__end_of_i2c_read_byte:
  1932 ;; =============== function _i2c_read_byte ends ============
  1933                           
  1934                           	signat	_i2c_read_byte,4217
  1935                           	global	_i2c_write_byte
  1936                           psect	text389,local,class=CODE,delta=2
  1937                           global __ptext389
  1938  0219                     __ptext389:
  1939                           
  1940 ;; *************** function _i2c_write_byte *****************
  1941 ;; Defined at:
  1942 ;;		line 83 in file "C:\Users\chait\Desktop\Project\BitBanging GPIO\uart_check.c"
  1943 ;; Parameters:    Size  Location     Type
  1944 ;;  data            1    wreg     unsigned char 
  1945 ;; Auto vars:     Size  Location     Type
  1946 ;;  data            1    3[COMMON] unsigned char 
  1947 ;;  i               1    4[COMMON] unsigned char 
  1948 ;; Return value:  Size  Location     Type
  1949 ;;                  1    wreg      unsigned char 
  1950 ;; Registers used:
  1951 ;;		wreg, status,2, status,0, pclath, cstack
  1952 ;; Tracked objects:
  1953 ;;		On entry : 0/0
  1954 ;;		On exit  : 0/0
  1955 ;;		Unchanged: 0/0
  1956 ;; Data sizes:     COMMON   BANK0   BANK1   BANK3   BANK2
  1957 ;;      Params:         0       0       0       0       0
  1958 ;;      Locals:         2       0       0       0       0
  1959 ;;      Temps:          1       0       0       0       0
  1960 ;;      Totals:         3       0       0       0       0
  1961 ;;Total ram usage:        3 bytes
  1962 ;; Hardware stack levels used:    1
  1963 ;; Hardware stack levels required when called:    2
  1964 ;; This function calls:
  1965 ;;		_i2c_wait
  1966 ;;		_i2c_read_ack
  1967 ;; This function is called by:
  1968 ;;		_eeprom_write_byte
  1969 ;;		_eeprom_read_byte
  1970 ;; This function uses a non-reentrant model
  1971 ;;
  1972                           psect	text389
  1973                           	file	"C:\Users\chait\Desktop\Project\BitBanging GPIO\uart_check.c"
  1974                           	line	83
  1975                           	global	__size_of_i2c_write_byte
  1976  0039                     	__size_of_i2c_write_byte	equ	__end_of_i2c_write_byte-_i2c_write_byte
  1977                           	
  1978  0219                     _i2c_write_byte:	
  1979                           	opt	stack 4
  1980                           ; Regs used in _i2c_write_byte: [wreg+status,2+status,0+pclath+cstack]
  1981                           ;i2c_write_byte@data stored from wreg
  1982  0219  00F3               	movwf	(i2c_write_byte@data)
  1983                           	line	84
  1984                           	
  1985  021A                     l4018:	
  1986                           ;uart_check.c: 84: for (char i = 0; i < 8; i++) {
  1987  021A  01F4               	clrf	(i2c_write_byte@i)
  1988                           	
  1989  021B                     l4020:	
  1990  021B  3008               	movlw	(08h)
  1991  021C  0274               	subwf	(i2c_write_byte@i),w
  1992  021D  1C03               	skipc
  1993  021E  2A20               	goto	u3161
  1994  021F  2A21               	goto	u3160
  1995  0220                     u3161:
  1996  0220  2A23               	goto	l995
  1997  0221                     u3160:
  1998  0221  2A4B               	goto	l4034
  1999                           	
  2000  0222                     l4022:	
  2001  0222  2A4B               	goto	l4034
  2002                           	
  2003  0223                     l995:	
  2004                           	line	85
  2005                           ;uart_check.c: 85: { TRISB3 = 0; RB3 = (data & 0x80) ? 1 : 0; };
  2006  0223  1683               	bsf	status, 5	;RP0=1, select bank1
  2007  0224  1303               	bcf	status, 6	;RP1=0, select bank1
  2008  0225  1186               	bcf	(1075/8)^080h,(1075)&7
  2009  0226  1BF3               	btfsc	(i2c_write_byte@data),(7)&7
  2010  0227  2A29               	goto	u3171
  2011  0228  2A2D               	goto	u3170
  2012                           	
  2013  0229                     u3171:
  2014  0229  1283               	bcf	status, 5	;RP0=0, select bank0
  2015  022A  1303               	bcf	status, 6	;RP1=0, select bank0
  2016  022B  1586               	bsf	(51/8),(51)&7
  2017  022C  2A30               	goto	u3184
  2018  022D                     u3170:
  2019  022D  1283               	bcf	status, 5	;RP0=0, select bank0
  2020  022E  1303               	bcf	status, 6	;RP1=0, select bank0
  2021  022F  1186               	bcf	(51/8),(51)&7
  2022  0230                     u3184:
  2023                           	line	86
  2024                           ;uart_check.c: 86: { RB4 = 1; i2c_wait(); };
  2025  0230  1606               	bsf	(52/8),(52)&7
  2026                           	
  2027  0231                     l4024:	
  2028  0231  120A  118A  214D   	fcall	_i2c_wait
              120A  118A         
  2029                           	line	87
  2030                           	
  2031  0236                     l4026:	
  2032                           ;uart_check.c: 87: { RB4 = 0; i2c_wait(); };
  2033  0236  1283               	bcf	status, 5	;RP0=0, select bank0
  2034  0237  1303               	bcf	status, 6	;RP1=0, select bank0
  2035  0238  1206               	bcf	(52/8),(52)&7
  2036  0239  120A  118A  214D   	fcall	_i2c_wait
              120A  118A         
  2037                           	line	88
  2038                           	
  2039  023E                     l4028:	
  2040                           ;uart_check.c: 88: data <<= 1;
  2041  023E  1003               	clrc
  2042  023F  0DF3               	rlf	(i2c_write_byte@data),f
  2043                           
  2044                           	line	84
  2045                           	
  2046  0240                     l4030:	
  2047  0240  3001               	movlw	(01h)
  2048  0241  00F2               	movwf	(??_i2c_write_byte+0)+0
  2049  0242  0872               	movf	(??_i2c_write_byte+0)+0,w
  2050  0243  07F4               	addwf	(i2c_write_byte@i),f
  2051                           	
  2052  0244                     l4032:	
  2053  0244  3008               	movlw	(08h)
  2054  0245  0274               	subwf	(i2c_write_byte@i),w
  2055  0246  1C03               	skipc
  2056  0247  2A49               	goto	u3191
  2057  0248  2A4A               	goto	u3190
  2058  0249                     u3191:
  2059  0249  2A23               	goto	l995
  2060  024A                     u3190:
  2061  024A  2A4B               	goto	l4034
  2062                           	
  2063  024B                     l996:	
  2064                           	line	90
  2065                           	
  2066  024B                     l4034:	
  2067                           ;uart_check.c: 89: }
  2068                           ;uart_check.c: 90: return i2c_read_ack();
  2069  024B  120A  118A  21B6   	fcall	_i2c_read_ack
              120A  118A         
  2070  0250  2A51               	goto	l997
  2071                           	
  2072  0251                     l4036:	
  2073                           	line	91
  2074                           	
  2075  0251                     l997:	
  2076  0251  0008               	return
  2077                           	opt stack 0
  2078                           GLOBAL	__end_of_i2c_write_byte
  2079  0252                     	__end_of_i2c_write_byte:
  2080 ;; =============== function _i2c_write_byte ends ============
  2081                           
  2082                           	signat	_i2c_write_byte,4217
  2083                           	global	_i2c_send_ack
  2084                           psect	text390,local,class=CODE,delta=2
  2085                           global __ptext390
  2086  01D2                     __ptext390:
  2087                           
  2088 ;; *************** function _i2c_send_ack *****************
  2089 ;; Defined at:
  2090 ;;		line 77 in file "C:\Users\chait\Desktop\Project\BitBanging GPIO\uart_check.c"
  2091 ;; Parameters:    Size  Location     Type
  2092 ;;  ack             1    wreg     unsigned char 
  2093 ;; Auto vars:     Size  Location     Type
  2094 ;;  ack             1    0[COMMON] unsigned char 
  2095 ;; Return value:  Size  Location     Type
  2096 ;;		None               void
  2097 ;; Registers used:
  2098 ;;		wreg, status,2, status,0, pclath, cstack
  2099 ;; Tracked objects:
  2100 ;;		On entry : 0/0
  2101 ;;		On exit  : 0/0
  2102 ;;		Unchanged: 0/0
  2103 ;; Data sizes:     COMMON   BANK0   BANK1   BANK3   BANK2
  2104 ;;      Params:         0       0       0       0       0
  2105 ;;      Locals:         1       0       0       0       0
  2106 ;;      Temps:          0       0       0       0       0
  2107 ;;      Totals:         1       0       0       0       0
  2108 ;;Total ram usage:        1 bytes
  2109 ;; Hardware stack levels used:    1
  2110 ;; Hardware stack levels required when called:    1
  2111 ;; This function calls:
  2112 ;;		_i2c_wait
  2113 ;; This function is called by:
  2114 ;;		_i2c_read_byte
  2115 ;; This function uses a non-reentrant model
  2116 ;;
  2117                           psect	text390
  2118                           	file	"C:\Users\chait\Desktop\Project\BitBanging GPIO\uart_check.c"
  2119                           	line	77
  2120                           	global	__size_of_i2c_send_ack
  2121  001D                     	__size_of_i2c_send_ack	equ	__end_of_i2c_send_ack-_i2c_send_ack
  2122                           	
  2123  01D2                     _i2c_send_ack:	
  2124                           	opt	stack 4
  2125                           ; Regs used in _i2c_send_ack: [wreg+status,2+status,0+pclath+cstack]
  2126                           ;i2c_send_ack@ack stored from wreg
  2127  01D2  00F0               	movwf	(i2c_send_ack@ack)
  2128                           	line	78
  2129                           	
  2130  01D3                     l4012:	
  2131                           ;uart_check.c: 78: { TRISB3 = 0; RB3 = ack; };
  2132  01D3  1683               	bsf	status, 5	;RP0=1, select bank1
  2133  01D4  1303               	bcf	status, 6	;RP1=0, select bank1
  2134  01D5  1186               	bcf	(1075/8)^080h,(1075)&7
  2135  01D6  1870               	btfsc	(i2c_send_ack@ack),0
  2136  01D7  29D9               	goto	u3141
  2137  01D8  29DD               	goto	u3140
  2138                           	
  2139  01D9                     u3141:
  2140  01D9  1283               	bcf	status, 5	;RP0=0, select bank0
  2141  01DA  1303               	bcf	status, 6	;RP1=0, select bank0
  2142  01DB  1586               	bsf	(51/8),(51)&7
  2143  01DC  29E0               	goto	u3154
  2144  01DD                     u3140:
  2145  01DD  1283               	bcf	status, 5	;RP0=0, select bank0
  2146  01DE  1303               	bcf	status, 6	;RP1=0, select bank0
  2147  01DF  1186               	bcf	(51/8),(51)&7
  2148  01E0                     u3154:
  2149                           	line	79
  2150                           ;uart_check.c: 79: { RB4 = 1; i2c_wait(); };
  2151  01E0  1606               	bsf	(52/8),(52)&7
  2152                           	
  2153  01E1                     l4014:	
  2154  01E1  120A  118A  214D   	fcall	_i2c_wait
              120A  118A         
  2155                           	line	80
  2156                           	
  2157  01E6                     l4016:	
  2158                           ;uart_check.c: 80: { RB4 = 0; i2c_wait(); };
  2159  01E6  1283               	bcf	status, 5	;RP0=0, select bank0
  2160  01E7  1303               	bcf	status, 6	;RP1=0, select bank0
  2161  01E8  1206               	bcf	(52/8),(52)&7
  2162  01E9  120A  118A  214D   	fcall	_i2c_wait
              120A  118A         
  2163                           	line	81
  2164                           	
  2165  01EE                     l992:	
  2166  01EE  0008               	return
  2167                           	opt stack 0
  2168                           GLOBAL	__end_of_i2c_send_ack
  2169  01EF                     	__end_of_i2c_send_ack:
  2170 ;; =============== function _i2c_send_ack ends ============
  2171                           
  2172                           	signat	_i2c_send_ack,4216
  2173                           	global	_i2c_read_ack
  2174                           psect	text391,local,class=CODE,delta=2
  2175                           global __ptext391
  2176  01B6                     __ptext391:
  2177                           
  2178 ;; *************** function _i2c_read_ack *****************
  2179 ;; Defined at:
  2180 ;;		line 68 in file "C:\Users\chait\Desktop\Project\BitBanging GPIO\uart_check.c"
  2181 ;; Parameters:    Size  Location     Type
  2182 ;;		None
  2183 ;; Auto vars:     Size  Location     Type
  2184 ;;  ack             1    1[COMMON] unsigned char 
  2185 ;; Return value:  Size  Location     Type
  2186 ;;                  1    wreg      unsigned char 
  2187 ;; Registers used:
  2188 ;;		wreg, status,2, status,0, pclath, cstack
  2189 ;; Tracked objects:
  2190 ;;		On entry : 0/0
  2191 ;;		On exit  : 0/0
  2192 ;;		Unchanged: 0/0
  2193 ;; Data sizes:     COMMON   BANK0   BANK1   BANK3   BANK2
  2194 ;;      Params:         0       0       0       0       0
  2195 ;;      Locals:         1       0       0       0       0
  2196 ;;      Temps:          1       0       0       0       0
  2197 ;;      Totals:         2       0       0       0       0
  2198 ;;Total ram usage:        2 bytes
  2199 ;; Hardware stack levels used:    1
  2200 ;; Hardware stack levels required when called:    1
  2201 ;; This function calls:
  2202 ;;		_i2c_wait
  2203 ;; This function is called by:
  2204 ;;		_i2c_write_byte
  2205 ;; This function uses a non-reentrant model
  2206 ;;
  2207                           psect	text391
  2208                           	file	"C:\Users\chait\Desktop\Project\BitBanging GPIO\uart_check.c"
  2209                           	line	68
  2210                           	global	__size_of_i2c_read_ack
  2211  001C                     	__size_of_i2c_read_ack	equ	__end_of_i2c_read_ack-_i2c_read_ack
  2212                           	
  2213  01B6                     _i2c_read_ack:	
  2214                           	opt	stack 4
  2215                           ; Regs used in _i2c_read_ack: [wreg+status,2+status,0+pclath+cstack]
  2216                           	line	70
  2217                           	
  2218  01B6                     l4000:	
  2219                           ;uart_check.c: 69: unsigned char ack;
  2220                           ;uart_check.c: 70: { TRISB3 = 1; };
  2221  01B6  1683               	bsf	status, 5	;RP0=1, select bank1
  2222  01B7  1303               	bcf	status, 6	;RP1=0, select bank1
  2223  01B8  1586               	bsf	(1075/8)^080h,(1075)&7
  2224                           	line	71
  2225                           ;uart_check.c: 71: { RB4 = 1; i2c_wait(); };
  2226  01B9  1283               	bcf	status, 5	;RP0=0, select bank0
  2227  01BA  1303               	bcf	status, 6	;RP1=0, select bank0
  2228  01BB  1606               	bsf	(52/8),(52)&7
  2229                           	
  2230  01BC                     l4002:	
  2231  01BC  120A  118A  214D   	fcall	_i2c_wait
              120A  118A         
  2232                           	line	72
  2233                           	
  2234  01C1                     l4004:	
  2235                           ;uart_check.c: 72: ack = (RB3);
  2236  01C1  3000               	movlw	0
  2237  01C2  1283               	bcf	status, 5	;RP0=0, select bank0
  2238  01C3  1303               	bcf	status, 6	;RP1=0, select bank0
  2239  01C4  1986               	btfsc	(51/8),(51)&7
  2240  01C5  3001               	movlw	1
  2241  01C6  00F0               	movwf	(??_i2c_read_ack+0)+0
  2242  01C7  0870               	movf	(??_i2c_read_ack+0)+0,w
  2243  01C8  00F1               	movwf	(i2c_read_ack@ack)
  2244                           	line	73
  2245                           	
  2246  01C9                     l4006:	
  2247                           ;uart_check.c: 73: { RB4 = 0; i2c_wait(); };
  2248  01C9  1206               	bcf	(52/8),(52)&7
  2249                           	
  2250  01CA                     l4008:	
  2251  01CA  120A  118A  214D   	fcall	_i2c_wait
              120A  118A         
  2252                           	line	74
  2253                           ;uart_check.c: 74: return ack;
  2254  01CF  0871               	movf	(i2c_read_ack@ack),w
  2255  01D0  29D1               	goto	l989
  2256                           	
  2257  01D1                     l4010:	
  2258                           	line	75
  2259                           	
  2260  01D1                     l989:	
  2261  01D1  0008               	return
  2262                           	opt stack 0
  2263                           GLOBAL	__end_of_i2c_read_ack
  2264  01D2                     	__end_of_i2c_read_ack:
  2265 ;; =============== function _i2c_read_ack ends ============
  2266                           
  2267                           	signat	_i2c_read_ack,89
  2268                           	global	_i2c_stop
  2269                           psect	text392,local,class=CODE,delta=2
  2270                           global __ptext392
  2271  0185                     __ptext392:
  2272                           
  2273 ;; *************** function _i2c_stop *****************
  2274 ;; Defined at:
  2275 ;;		line 61 in file "C:\Users\chait\Desktop\Project\BitBanging GPIO\uart_check.c"
  2276 ;; Parameters:    Size  Location     Type
  2277 ;;		None
  2278 ;; Auto vars:     Size  Location     Type
  2279 ;;		None
  2280 ;; Return value:  Size  Location     Type
  2281 ;;		None               void
  2282 ;; Registers used:
  2283 ;;		status,2, status,0, pclath, cstack
  2284 ;; Tracked objects:
  2285 ;;		On entry : 0/0
  2286 ;;		On exit  : 0/0
  2287 ;;		Unchanged: 0/0
  2288 ;; Data sizes:     COMMON   BANK0   BANK1   BANK3   BANK2
  2289 ;;      Params:         0       0       0       0       0
  2290 ;;      Locals:         0       0       0       0       0
  2291 ;;      Temps:          0       0       0       0       0
  2292 ;;      Totals:         0       0       0       0       0
  2293 ;;Total ram usage:        0 bytes
  2294 ;; Hardware stack levels used:    1
  2295 ;; Hardware stack levels required when called:    1
  2296 ;; This function calls:
  2297 ;;		_i2c_wait
  2298 ;; This function is called by:
  2299 ;;		_eeprom_write_byte
  2300 ;;		_eeprom_read_byte
  2301 ;; This function uses a non-reentrant model
  2302 ;;
  2303                           psect	text392
  2304                           	file	"C:\Users\chait\Desktop\Project\BitBanging GPIO\uart_check.c"
  2305                           	line	61
  2306                           	global	__size_of_i2c_stop
  2307  0018                     	__size_of_i2c_stop	equ	__end_of_i2c_stop-_i2c_stop
  2308                           	
  2309  0185                     _i2c_stop:	
  2310                           	opt	stack 5
  2311                           ; Regs used in _i2c_stop: [status,2+status,0+pclath+cstack]
  2312                           	line	62
  2313                           	
  2314  0185                     l3992:	
  2315                           ;uart_check.c: 62: { TRISB3 = 0; RB3 = 0; };
  2316  0185  1683               	bsf	status, 5	;RP0=1, select bank1
  2317  0186  1303               	bcf	status, 6	;RP1=0, select bank1
  2318  0187  1186               	bcf	(1075/8)^080h,(1075)&7
  2319  0188  1283               	bcf	status, 5	;RP0=0, select bank0
  2320  0189  1303               	bcf	status, 6	;RP1=0, select bank0
  2321  018A  1186               	bcf	(51/8),(51)&7
  2322                           	line	63
  2323                           ;uart_check.c: 63: { RB4 = 1; i2c_wait(); };
  2324  018B  1606               	bsf	(52/8),(52)&7
  2325                           	
  2326  018C                     l3994:	
  2327  018C  120A  118A  214D   	fcall	_i2c_wait
              120A  118A         
  2328                           	line	64
  2329                           	
  2330  0191                     l3996:	
  2331                           ;uart_check.c: 64: { TRISB3 = 0; RB3 = 1; };
  2332  0191  1683               	bsf	status, 5	;RP0=1, select bank1
  2333  0192  1303               	bcf	status, 6	;RP1=0, select bank1
  2334  0193  1186               	bcf	(1075/8)^080h,(1075)&7
  2335                           	
  2336  0194                     l3998:	
  2337  0194  1283               	bcf	status, 5	;RP0=0, select bank0
  2338  0195  1303               	bcf	status, 6	;RP1=0, select bank0
  2339  0196  1586               	bsf	(51/8),(51)&7
  2340                           	line	65
  2341                           ;uart_check.c: 65: i2c_wait();
  2342  0197  120A  118A  214D   	fcall	_i2c_wait
              120A  118A         
  2343                           	line	66
  2344                           	
  2345  019C                     l986:	
  2346  019C  0008               	return
  2347                           	opt stack 0
  2348                           GLOBAL	__end_of_i2c_stop
  2349  019D                     	__end_of_i2c_stop:
  2350 ;; =============== function _i2c_stop ends ============
  2351                           
  2352                           	signat	_i2c_stop,88
  2353                           	global	_i2c_start
  2354                           psect	text393,local,class=CODE,delta=2
  2355                           global __ptext393
  2356  019D                     __ptext393:
  2357                           
  2358 ;; *************** function _i2c_start *****************
  2359 ;; Defined at:
  2360 ;;		line 54 in file "C:\Users\chait\Desktop\Project\BitBanging GPIO\uart_check.c"
  2361 ;; Parameters:    Size  Location     Type
  2362 ;;		None
  2363 ;; Auto vars:     Size  Location     Type
  2364 ;;		None
  2365 ;; Return value:  Size  Location     Type
  2366 ;;		None               void
  2367 ;; Registers used:
  2368 ;;		status,2, status,0, pclath, cstack
  2369 ;; Tracked objects:
  2370 ;;		On entry : 0/0
  2371 ;;		On exit  : 0/0
  2372 ;;		Unchanged: 0/0
  2373 ;; Data sizes:     COMMON   BANK0   BANK1   BANK3   BANK2
  2374 ;;      Params:         0       0       0       0       0
  2375 ;;      Locals:         0       0       0       0       0
  2376 ;;      Temps:          0       0       0       0       0
  2377 ;;      Totals:         0       0       0       0       0
  2378 ;;Total ram usage:        0 bytes
  2379 ;; Hardware stack levels used:    1
  2380 ;; Hardware stack levels required when called:    1
  2381 ;; This function calls:
  2382 ;;		_i2c_wait
  2383 ;; This function is called by:
  2384 ;;		_eeprom_write_byte
  2385 ;;		_eeprom_read_byte
  2386 ;; This function uses a non-reentrant model
  2387 ;;
  2388                           psect	text393
  2389                           	file	"C:\Users\chait\Desktop\Project\BitBanging GPIO\uart_check.c"
  2390                           	line	54
  2391                           	global	__size_of_i2c_start
  2392  0019                     	__size_of_i2c_start	equ	__end_of_i2c_start-_i2c_start
  2393                           	
  2394  019D                     _i2c_start:	
  2395                           	opt	stack 5
  2396                           ; Regs used in _i2c_start: [status,2+status,0+pclath+cstack]
  2397                           	line	55
  2398                           	
  2399  019D                     l3982:	
  2400                           ;uart_check.c: 55: { TRISB3 = 0; RB3 = 1; };
  2401  019D  1683               	bsf	status, 5	;RP0=1, select bank1
  2402  019E  1303               	bcf	status, 6	;RP1=0, select bank1
  2403  019F  1186               	bcf	(1075/8)^080h,(1075)&7
  2404  01A0  1283               	bcf	status, 5	;RP0=0, select bank0
  2405  01A1  1303               	bcf	status, 6	;RP1=0, select bank0
  2406  01A2  1586               	bsf	(51/8),(51)&7
  2407                           	line	56
  2408                           ;uart_check.c: 56: { RB4 = 1; i2c_wait(); };
  2409  01A3  1606               	bsf	(52/8),(52)&7
  2410                           	
  2411  01A4                     l3984:	
  2412  01A4  120A  118A  214D   	fcall	_i2c_wait
              120A  118A         
  2413                           	line	57
  2414                           	
  2415  01A9                     l3986:	
  2416                           ;uart_check.c: 57: { TRISB3 = 0; RB3 = 0; };
  2417  01A9  1683               	bsf	status, 5	;RP0=1, select bank1
  2418  01AA  1303               	bcf	status, 6	;RP1=0, select bank1
  2419  01AB  1186               	bcf	(1075/8)^080h,(1075)&7
  2420                           	
  2421  01AC                     l3988:	
  2422  01AC  1283               	bcf	status, 5	;RP0=0, select bank0
  2423  01AD  1303               	bcf	status, 6	;RP1=0, select bank0
  2424  01AE  1186               	bcf	(51/8),(51)&7
  2425                           	line	58
  2426                           	
  2427  01AF                     l3990:	
  2428                           ;uart_check.c: 58: { RB4 = 0; i2c_wait(); };
  2429  01AF  1206               	bcf	(52/8),(52)&7
  2430  01B0  120A  118A  214D   	fcall	_i2c_wait
              120A  118A         
  2431                           	line	59
  2432                           	
  2433  01B5                     l983:	
  2434  01B5  0008               	return
  2435                           	opt stack 0
  2436                           GLOBAL	__end_of_i2c_start
  2437  01B6                     	__end_of_i2c_start:
  2438 ;; =============== function _i2c_start ends ============
  2439                           
  2440                           	signat	_i2c_start,88
  2441                           	global	_printf
  2442                           psect	text394,local,class=CODE,delta=2
  2443                           global __ptext394
  2444  0502                     __ptext394:
  2445                           
  2446 ;; *************** function _printf *****************
  2447 ;; Defined at:
  2448 ;;		line 461 in file "C:\Program Files (x86)\HI-TECH Software\PICC\9.83\lib\doprnt.c"
  2449 ;; Parameters:    Size  Location     Type
  2450 ;;  f               2    0[BANK0 ] PTR const unsigned char 
  2451 ;;		 -> STR_12(30), STR_11(12), STR_8(16), STR_7(19), 
  2452 ;;		 -> STR_6(22), STR_5(7), STR_4(5), STR_3(27), 
  2453 ;;		 -> STR_2(34), STR_1(43), 
  2454 ;; Auto vars:     Size  Location     Type
  2455 ;;  _val            4   15[BANK0 ] struct .
  2456 ;;  width           2   12[BANK0 ] int 
  2457 ;;  c               1   14[BANK0 ] char 
  2458 ;;  flag            1   11[BANK0 ] unsigned char 
  2459 ;;  ap              1   10[BANK0 ] PTR void [1]
  2460 ;;		 -> ?_printf(2), 
  2461 ;;  prec            1    9[BANK0 ] char 
  2462 ;; Return value:  Size  Location     Type
  2463 ;;                  2    0[BANK0 ] int 
  2464 ;; Registers used:
  2465 ;;		wreg, fsr0l, fsr0h, status,2, status,0, btemp+1, pclath, cstack
  2466 ;; Tracked objects:
  2467 ;;		On entry : 0/0
  2468 ;;		On exit  : 0/0
  2469 ;;		Unchanged: 0/0
  2470 ;; Data sizes:     COMMON   BANK0   BANK1   BANK3   BANK2
  2471 ;;      Params:         0       6       0       0       0
  2472 ;;      Locals:         0      10       0       0       0
  2473 ;;      Temps:          0       3       0       0       0
  2474 ;;      Totals:         0      19       0       0       0
  2475 ;;Total ram usage:       19 bytes
  2476 ;; Hardware stack levels used:    1
  2477 ;; Hardware stack levels required when called:    1
  2478 ;; This function calls:
  2479 ;;		_putch
  2480 ;;		_isdigit
  2481 ;;		___wmul
  2482 ;;		___lwdiv
  2483 ;;		___lwmod
  2484 ;; This function is called by:
  2485 ;;		_main
  2486 ;; This function uses a non-reentrant model
  2487 ;;
  2488                           psect	text394
  2489                           	file	"C:\Program Files (x86)\HI-TECH Software\PICC\9.83\sources\doprnt.c"
  2490                           	line	461
  2491                           	global	__size_of_printf
  2492  02FE                     	__size_of_printf	equ	__end_of_printf-_printf
  2493                           	
  2494  0502                     _printf:	
  2495                           	opt	stack 6
  2496                           ; Regs used in _printf: [wreg-fsr0h+status,2+status,0+btemp+1+pclath+cstack]
  2497                           	line	537
  2498                           	
  2499  0502                     l3840:	
  2500  0502  3022               	movlw	(?_printf+02h)&0ffh
  2501  0503  1283               	bcf	status, 5	;RP0=0, select bank0
  2502  0504  1303               	bcf	status, 6	;RP1=0, select bank0
  2503  0505  00A6               	movwf	(??_printf+0)+0
  2504  0506  0826               	movf	(??_printf+0)+0,w
  2505  0507  00AA               	movwf	(printf@ap)
  2506                           	line	540
  2507  0508  2FE2               	goto	l3980
  2508                           	
  2509  0509                     l1054:	
  2510                           	line	542
  2511                           	
  2512  0509                     l3842:	
  2513  0509  082E               	movf	(printf@c),w
  2514  050A  3A25               	xorlw	025h
  2515  050B  1903               	skipnz
  2516  050C  2D0E               	goto	u2921
  2517  050D  2D0F               	goto	u2920
  2518  050E                     u2921:
  2519  050E  2D16               	goto	l3846
  2520  050F                     u2920:
  2521                           	line	545
  2522                           	
  2523  050F                     l3844:	
  2524  050F  082E               	movf	(printf@c),w
  2525  0510  120A  118A  2154   	fcall	_putch
              120A  118A         
  2526                           	line	546
  2527  0515  2FE2               	goto	l3980
  2528                           	line	547
  2529                           	
  2530  0516                     l1055:	
  2531                           	line	550
  2532                           	
  2533  0516                     l3846:	
  2534  0516  1283               	bcf	status, 5	;RP0=0, select bank0
  2535  0517  1303               	bcf	status, 6	;RP1=0, select bank0
  2536  0518  01AC               	clrf	(printf@width)
  2537  0519  01AD               	clrf	(printf@width+1)
  2538                           	line	552
  2539                           	
  2540  051A                     l3848:	
  2541  051A  01AB               	clrf	(printf@flag)
  2542  051B  2D26               	goto	l3854
  2543                           	line	554
  2544                           	
  2545  051C                     l1056:	
  2546                           	line	555
  2547  051C  2D26               	goto	l3854
  2548                           	line	583
  2549                           	
  2550  051D                     l1058:	
  2551                           	line	584
  2552  051D  152B               	bsf	(printf@flag)+(2/8),(2)&7
  2553                           	line	585
  2554                           	
  2555  051E                     l3850:	
  2556  051E  3001               	movlw	low(01h)
  2557  051F  07A0               	addwf	(printf@f),f
  2558  0520  1803               	skipnc
  2559  0521  0AA1               	incf	(printf@f+1),f
  2560  0522  3000               	movlw	high(01h)
  2561  0523  07A1               	addwf	(printf@f+1),f
  2562                           	line	586
  2563  0524  2D26               	goto	l3854
  2564                           	line	588
  2565                           	
  2566  0525                     l3852:	
  2567  0525  2D35               	goto	l3856
  2568                           	line	555
  2569                           	
  2570  0526                     l1057:	
  2571                           	
  2572  0526                     l3854:	
  2573  0526  0821               	movf	(printf@f+1),w
  2574  0527  00FF               	movwf	btemp+1
  2575  0528  0820               	movf	(printf@f),w
  2576  0529  0084               	movwf	fsr0
  2577  052A  120A  158A  2000   	fcall	stringtab
              120A  118A         
  2578                           	; Switch size 1, requested type "space"
  2579                           ; Number of cases is 1, Range of values is 48 to 48
  2580                           ; switch strategies available:
  2581                           ; Name         Instructions Cycles
  2582                           ; simple_byte            4     3 (average)
  2583                           ; direct_byte           14    11 (fixed)
  2584                           ; jumptable            263     9 (fixed)
  2585                           ;	Chosen strategy is simple_byte
  2586                           
  2587                           	opt asmopt_off
  2588  052F  3A30               	xorlw	48^0	; case 48
  2589  0530  1903               	skipnz
  2590  0531  2D1D               	goto	l1058
  2591  0532  2D35               	goto	l3856
  2592                           	opt asmopt_on
  2593                           
  2594                           	line	588
  2595                           	
  2596  0533                     l1060:	
  2597                           	line	589
  2598  0533  2D35               	goto	l3856
  2599                           	line	590
  2600                           	
  2601  0534                     l1059:	
  2602  0534  2D26               	goto	l3854
  2603                           	
  2604  0535                     l1061:	
  2605                           	line	601
  2606                           	
  2607  0535                     l3856:	
  2608  0535  0821               	movf	(printf@f+1),w
  2609  0536  00FF               	movwf	btemp+1
  2610  0537  0820               	movf	(printf@f),w
  2611  0538  0084               	movwf	fsr0
  2612  0539  120A  158A  2000   	fcall	stringtab
              120A  118A         
  2613  053E  120A  118A  2170   	fcall	_isdigit
              120A  118A         
  2614  0543  1C03               	btfss	status,0
  2615  0544  2D46               	goto	u2931
  2616  0545  2D47               	goto	u2930
  2617  0546                     u2931:
  2618  0546  2E3F               	goto	l3908
  2619  0547                     u2930:
  2620                           	line	602
  2621                           	
  2622  0547                     l3858:	
  2623  0547  1283               	bcf	status, 5	;RP0=0, select bank0
  2624  0548  1303               	bcf	status, 6	;RP1=0, select bank0
  2625  0549  01AC               	clrf	(printf@width)
  2626  054A  01AD               	clrf	(printf@width+1)
  2627  054B  2D4C               	goto	l3860
  2628                           	line	603
  2629                           	
  2630  054C                     l1063:	
  2631                           	line	604
  2632                           	
  2633  054C                     l3860:	
  2634  054C  1283               	bcf	status, 5	;RP0=0, select bank0
  2635  054D  1303               	bcf	status, 6	;RP1=0, select bank0
  2636  054E  082D               	movf	(printf@width+1),w
  2637  054F  01F1               	clrf	(?___wmul+1)
  2638  0550  07F1               	addwf	(?___wmul+1)
  2639  0551  082C               	movf	(printf@width),w
  2640  0552  01F0               	clrf	(?___wmul)
  2641  0553  07F0               	addwf	(?___wmul)
  2642                           
  2643  0554  300A               	movlw	low(0Ah)
  2644  0555  00F2               	movwf	0+(?___wmul)+02h
  2645  0556  3000               	movlw	high(0Ah)
  2646  0557  00F3               	movwf	(0+(?___wmul)+02h)+1
  2647  0558  120A  118A  21EF   	fcall	___wmul
              120A  118A         
  2648  055D  1283               	bcf	status, 5	;RP0=0, select bank0
  2649  055E  1303               	bcf	status, 6	;RP1=0, select bank0
  2650  055F  0821               	movf	(printf@f+1),w
  2651  0560  00FF               	movwf	btemp+1
  2652  0561  0820               	movf	(printf@f),w
  2653  0562  0084               	movwf	fsr0
  2654  0563  120A  158A  2000   	fcall	stringtab
              120A  118A         
  2655  0568  0770               	addwf	(0+(?___wmul)),w
  2656  0569  00A6               	movwf	(??_printf+0)+0
  2657  056A  3000               	movlw	0
  2658  056B  1803               	skipnc
  2659  056C  3001               	movlw	1
  2660  056D  0771               	addwf	(1+(?___wmul)),w
  2661  056E  00A7               	movwf	1+(??_printf+0)+0
  2662  056F  0826               	movf	0+(??_printf+0)+0,w
  2663  0570  3ED0               	addlw	low(0FFD0h)
  2664  0571  00AC               	movwf	(printf@width)
  2665  0572  0827               	movf	1+(??_printf+0)+0,w
  2666  0573  1803               	skipnc
  2667  0574  3E01               	addlw	1
  2668  0575  3EFF               	addlw	high(0FFD0h)
  2669  0576  00AD               	movwf	1+(printf@width)
  2670                           	
  2671  0577                     l3862:	
  2672  0577  3001               	movlw	low(01h)
  2673  0578  07A0               	addwf	(printf@f),f
  2674  0579  1803               	skipnc
  2675  057A  0AA1               	incf	(printf@f+1),f
  2676  057B  3000               	movlw	high(01h)
  2677  057C  07A1               	addwf	(printf@f+1),f
  2678                           	line	605
  2679                           	
  2680  057D                     l3864:	
  2681  057D  0821               	movf	(printf@f+1),w
  2682  057E  00FF               	movwf	btemp+1
  2683  057F  0820               	movf	(printf@f),w
  2684  0580  0084               	movwf	fsr0
  2685  0581  120A  158A  2000   	fcall	stringtab
              120A  118A         
  2686  0586  120A  118A  2170   	fcall	_isdigit
              120A  118A         
  2687  058B  1803               	btfsc	status,0
  2688  058C  2D8E               	goto	u2941
  2689  058D  2D8F               	goto	u2940
  2690  058E                     u2941:
  2691  058E  2D4C               	goto	l3860
  2692  058F                     u2940:
  2693  058F  2E3F               	goto	l3908
  2694                           	
  2695  0590                     l1064:	
  2696  0590  2E3F               	goto	l3908
  2697                           	line	611
  2698                           	
  2699  0591                     l1062:	
  2700                           	line	638
  2701  0591  2E3F               	goto	l3908
  2702                           	line	640
  2703                           	
  2704  0592                     l1066:	
  2705                           	line	641
  2706  0592  2FFF               	goto	l1116
  2707                           	line	715
  2708                           	
  2709  0593                     l1068:	
  2710                           	line	721
  2711                           	
  2712  0593                     l1069:	
  2713                           	line	724
  2714  0593  1283               	bcf	status, 5	;RP0=0, select bank0
  2715  0594  1303               	bcf	status, 6	;RP1=0, select bank0
  2716  0595  17AB               	bsf	(printf@flag)+(7/8),(7)&7
  2717                           	line	726
  2718  0596  2E66               	goto	l3910
  2719                           	line	731
  2720                           	
  2721  0597                     l1071:	
  2722                           	line	737
  2723                           	
  2724  0597                     l3866:	
  2725  0597  082A               	movf	(printf@ap),w
  2726  0598  0084               	movwf	fsr0
  2727  0599  1383               	bcf	status, 7	;select IRP bank0
  2728  059A  0800               	movf	indf,w
  2729  059B  00AF               	movwf	(printf@_val)
  2730  059C  0A84               	incf	fsr0,f
  2731  059D  0800               	movf	indf,w
  2732  059E  00B0               	movwf	(printf@_val+1)
  2733                           	
  2734  059F                     l3868:	
  2735  059F  3002               	movlw	(02h)
  2736  05A0  00A6               	movwf	(??_printf+0)+0
  2737  05A1  0826               	movf	(??_printf+0)+0,w
  2738  05A2  07AA               	addwf	(printf@ap),f
  2739                           	line	743
  2740                           	
  2741  05A3                     l3870:	
  2742  05A3  0830               	movf	((printf@_val+1)),w
  2743  05A4  042F               	iorwf	((printf@_val)),w
  2744  05A5  1D03               	skipz
  2745  05A6  2DA8               	goto	u2951
  2746  05A7  2DA9               	goto	u2950
  2747  05A8                     u2951:
  2748  05A8  2DAE               	goto	l3874
  2749  05A9                     u2950:
  2750                           	line	744
  2751                           	
  2752  05A9                     l3872:	
  2753  05A9  300A               	movlw	low(STR_13|8000h)
  2754  05AA  00AF               	movwf	(printf@_val)
  2755  05AB  3089               	movlw	high(STR_13|8000h)
  2756  05AC  00B0               	movwf	((printf@_val))+1
  2757  05AD  2DAE               	goto	l3874
  2758                           	
  2759  05AE                     l1072:	
  2760                           	line	748
  2761                           	
  2762  05AE                     l3874:	
  2763  05AE  01B1               	clrf	0+(printf@_val)+02h
  2764  05AF  01B2               	clrf	1+(printf@_val)+02h
  2765                           	line	749
  2766  05B0  2DB8               	goto	l3878
  2767                           	
  2768  05B1                     l1074:	
  2769                           	line	750
  2770                           	
  2771  05B1                     l3876:	
  2772  05B1  3001               	movlw	low(01h)
  2773  05B2  07B1               	addwf	0+(printf@_val)+02h,f
  2774  05B3  1803               	skipnc
  2775  05B4  0AB2               	incf	1+(printf@_val)+02h,f
  2776  05B5  3000               	movlw	high(01h)
  2777  05B6  07B2               	addwf	1+(printf@_val)+02h,f
  2778  05B7  2DB8               	goto	l3878
  2779                           	
  2780  05B8                     l1073:	
  2781                           	line	749
  2782                           	
  2783  05B8                     l3878:	
  2784  05B8  0831               	movf	0+(printf@_val)+02h,w
  2785  05B9  072F               	addwf	(printf@_val),w
  2786  05BA  0084               	movwf	fsr0
  2787  05BB  0830               	movf	(printf@_val+1),w
  2788  05BC  1803               	skipnc
  2789  05BD  0A30               	incf	(printf@_val+1),w
  2790  05BE  00FF               	movwf	btemp+1
  2791  05BF  120A  158A  2000   	fcall	stringtab
              120A  118A         
  2792  05C4  3800               	iorlw	0
  2793  05C5  1D03               	skipz
  2794  05C6  2DC8               	goto	u2961
  2795  05C7  2DC9               	goto	u2960
  2796  05C8                     u2961:
  2797  05C8  2DB1               	goto	l3876
  2798  05C9                     u2960:
  2799  05C9  2DCB               	goto	l3880
  2800                           	
  2801  05CA                     l1075:	
  2802  05CA  2DCB               	goto	l3880
  2803                           	line	753
  2804                           	
  2805  05CB                     l1076:	
  2806                           	line	760
  2807                           	
  2808  05CB                     l3880:	
  2809  05CB  082D               	movf	(printf@width+1),w
  2810  05CC  0232               	subwf	1+(printf@_val)+02h,w
  2811  05CD  1D03               	skipz
  2812  05CE  2DD1               	goto	u2975
  2813  05CF  082C               	movf	(printf@width),w
  2814  05D0  0231               	subwf	0+(printf@_val)+02h,w
  2815  05D1                     u2975:
  2816  05D1  1803               	skipnc
  2817  05D2  2DD4               	goto	u2971
  2818  05D3  2DD5               	goto	u2970
  2819  05D4                     u2971:
  2820  05D4  2DDC               	goto	l3884
  2821  05D5                     u2970:
  2822                           	line	761
  2823                           	
  2824  05D5                     l3882:	
  2825  05D5  0831               	movf	0+(printf@_val)+02h,w
  2826  05D6  02AC               	subwf	(printf@width),f
  2827  05D7  0832               	movf	1+(printf@_val)+02h,w
  2828  05D8  1C03               	skipc
  2829  05D9  03AD               	decf	(printf@width+1),f
  2830  05DA  02AD               	subwf	(printf@width+1),f
  2831  05DB  2DE7               	goto	l3888
  2832                           	line	762
  2833                           	
  2834  05DC                     l1077:	
  2835                           	line	763
  2836                           	
  2837  05DC                     l3884:	
  2838  05DC  01AC               	clrf	(printf@width)
  2839  05DD  01AD               	clrf	(printf@width+1)
  2840  05DE  2DE7               	goto	l3888
  2841                           	
  2842  05DF                     l1078:	
  2843                           	line	767
  2844  05DF  2DE7               	goto	l3888
  2845                           	
  2846  05E0                     l1080:	
  2847                           	line	768
  2848                           	
  2849  05E0                     l3886:	
  2850  05E0  3020               	movlw	(020h)
  2851  05E1  120A  118A  2154   	fcall	_putch
              120A  118A         
  2852  05E6  2DE7               	goto	l3888
  2853                           	
  2854  05E7                     l1079:	
  2855                           	line	767
  2856                           	
  2857  05E7                     l3888:	
  2858  05E7  30FF               	movlw	low(-1)
  2859  05E8  1283               	bcf	status, 5	;RP0=0, select bank0
  2860  05E9  1303               	bcf	status, 6	;RP1=0, select bank0
  2861  05EA  07AC               	addwf	(printf@width),f
  2862  05EB  1803               	skipnc
  2863  05EC  0AAD               	incf	(printf@width+1),f
  2864  05ED  30FF               	movlw	high(-1)
  2865  05EE  07AD               	addwf	(printf@width+1),f
  2866  05EF  30FF               	movlw	high(-1)
  2867  05F0  062D               	xorwf	((printf@width+1)),w
  2868  05F1  1D03               	skipz
  2869  05F2  2DF5               	goto	u2985
  2870  05F3  30FF               	movlw	low(-1)
  2871  05F4  062C               	xorwf	((printf@width)),w
  2872  05F5                     u2985:
  2873                           
  2874  05F5  1D03               	skipz
  2875  05F6  2DF8               	goto	u2981
  2876  05F7  2DF9               	goto	u2980
  2877  05F8                     u2981:
  2878  05F8  2DE0               	goto	l3886
  2879  05F9                     u2980:
  2880  05F9  2E12               	goto	l3894
  2881                           	
  2882  05FA                     l1081:	
  2883                           	line	770
  2884  05FA  2E12               	goto	l3894
  2885                           	
  2886  05FB                     l1083:	
  2887                           	line	771
  2888                           	
  2889  05FB                     l3890:	
  2890  05FB  0830               	movf	(printf@_val+1),w
  2891  05FC  00FF               	movwf	btemp+1
  2892  05FD  082F               	movf	(printf@_val),w
  2893  05FE  0084               	movwf	fsr0
  2894  05FF  120A  158A  2000   	fcall	stringtab
              120A  118A         
  2895  0604  120A  118A  2154   	fcall	_putch
              120A  118A         
  2896                           	
  2897  0609                     l3892:	
  2898  0609  3001               	movlw	low(01h)
  2899  060A  1283               	bcf	status, 5	;RP0=0, select bank0
  2900  060B  1303               	bcf	status, 6	;RP1=0, select bank0
  2901  060C  07AF               	addwf	(printf@_val),f
  2902  060D  1803               	skipnc
  2903  060E  0AB0               	incf	(printf@_val+1),f
  2904  060F  3000               	movlw	high(01h)
  2905  0610  07B0               	addwf	(printf@_val+1),f
  2906  0611  2E12               	goto	l3894
  2907                           	
  2908  0612                     l1082:	
  2909                           	line	770
  2910                           	
  2911  0612                     l3894:	
  2912  0612  3001               	movlw	low(01h)
  2913  0613  02B1               	subwf	0+(printf@_val)+02h,f
  2914  0614  3000               	movlw	high(01h)
  2915  0615  1C03               	skipc
  2916  0616  03B2               	decf	1+(printf@_val)+02h,f
  2917  0617  02B2               	subwf	1+(printf@_val)+02h,f
  2918  0618  30FF               	movlw	high(0FFFFh)
  2919  0619  0632               	xorwf	(1+(printf@_val)+02h),w
  2920  061A  1D03               	skipz
  2921  061B  2E1E               	goto	u2995
  2922  061C  30FF               	movlw	low(0FFFFh)
  2923  061D  0631               	xorwf	(0+(printf@_val)+02h),w
  2924  061E                     u2995:
  2925                           
  2926  061E  1D03               	skipz
  2927  061F  2E21               	goto	u2991
  2928  0620  2E22               	goto	u2990
  2929  0621                     u2991:
  2930  0621  2DFB               	goto	l3890
  2931  0622                     u2990:
  2932  0622  2FE2               	goto	l3980
  2933                           	
  2934  0623                     l1084:	
  2935                           	line	777
  2936  0623  2FE2               	goto	l3980
  2937                           	line	787
  2938                           	
  2939  0624                     l1085:	
  2940                           	line	802
  2941                           	
  2942  0624                     l3896:	
  2943  0624  082A               	movf	(printf@ap),w
  2944  0625  0084               	movwf	fsr0
  2945  0626  1383               	bcf	status, 7	;select IRP bank0
  2946  0627  0800               	movf	indf,w
  2947  0628  00A6               	movwf	(??_printf+0)+0
  2948  0629  0826               	movf	(??_printf+0)+0,w
  2949  062A  00AE               	movwf	(printf@c)
  2950                           	
  2951  062B                     l3898:	
  2952  062B  3002               	movlw	(02h)
  2953  062C  00A6               	movwf	(??_printf+0)+0
  2954  062D  0826               	movf	(??_printf+0)+0,w
  2955  062E  07AA               	addwf	(printf@ap),f
  2956  062F  2E30               	goto	l3900
  2957                           	line	805
  2958                           	
  2959  0630                     l1086:	
  2960                           	line	808
  2961                           	
  2962  0630                     l3900:	
  2963  0630  302E               	movlw	(printf@c&0ffh)
  2964  0631  00AF               	movwf	(printf@_val)
  2965  0632  3000               	movlw	(0x0/2)
  2966  0633  00B0               	movwf	(printf@_val+1)
  2967                           	line	809
  2968                           	
  2969  0634                     l3902:	
  2970  0634  3001               	movlw	low(01h)
  2971  0635  00B1               	movwf	0+(printf@_val)+02h
  2972  0636  3000               	movlw	high(01h)
  2973  0637  00B2               	movwf	(0+(printf@_val)+02h)+1
  2974                           	line	810
  2975  0638  2DCB               	goto	l3880
  2976                           	line	820
  2977                           	
  2978  0639                     l1087:	
  2979                           	line	821
  2980                           	
  2981  0639                     l3904:	
  2982  0639  30C0               	movlw	(0C0h)
  2983  063A  00A6               	movwf	(??_printf+0)+0
  2984  063B  0826               	movf	(??_printf+0)+0,w
  2985  063C  04AB               	iorwf	(printf@flag),f
  2986                           	line	822
  2987  063D  2E66               	goto	l3910
  2988                           	line	825
  2989                           	
  2990  063E                     l3906:	
  2991  063E  2E66               	goto	l3910
  2992                           	line	638
  2993                           	
  2994  063F                     l1065:	
  2995                           	
  2996  063F                     l3908:	
  2997  063F  1283               	bcf	status, 5	;RP0=0, select bank0
  2998  0640  1303               	bcf	status, 6	;RP1=0, select bank0
  2999  0641  0821               	movf	(printf@f+1),w
  3000  0642  00A7               	movwf	(??_printf+0)+0+1
  3001  0643  0820               	movf	(printf@f),w
  3002  0644  00A6               	movwf	(??_printf+0)+0
  3003  0645  3001               	movlw	(01h)
  3004  0646  07A0               	addwf	(printf@f),f
  3005  0647  1803               	skipnc
  3006  0648  0AA1               	incf	(printf@f+1),f
  3007  0649  0827               	movf	1+(??_printf+0)+0,w
  3008  064A  00FF               	movwf	btemp+1
  3009  064B  0826               	movf	0+(??_printf+0)+0,w
  3010  064C  0084               	movwf	fsr0
  3011  064D  120A  158A  2000   	fcall	stringtab
              120A  118A         
  3012  0652  00AE               	movwf	(printf@c)
  3013                           	; Switch size 1, requested type "space"
  3014                           ; Number of cases is 6, Range of values is 0 to 120
  3015                           ; switch strategies available:
  3016                           ; Name         Instructions Cycles
  3017                           ; simple_byte           19    10 (average)
  3018                           ; jumptable            260     6 (fixed)
  3019                           ; rangetable           125     6 (fixed)
  3020                           ; spacedrange          248     9 (fixed)
  3021                           ; locatedrange         121     3 (fixed)
  3022                           ;	Chosen strategy is simple_byte
  3023                           
  3024                           	opt asmopt_off
  3025  0653  3A00               	xorlw	0^0	; case 0
  3026  0654  1903               	skipnz
  3027  0655  2FFF               	goto	l1116
  3028  0656  3A58               	xorlw	88^0	; case 88
  3029  0657  1903               	skipnz
  3030  0658  2D93               	goto	l1069
  3031  0659  3A3B               	xorlw	99^88	; case 99
  3032  065A  1903               	skipnz
  3033  065B  2E24               	goto	l3896
  3034  065C  3A10               	xorlw	115^99	; case 115
  3035  065D  1903               	skipnz
  3036  065E  2D97               	goto	l3866
  3037  065F  3A06               	xorlw	117^115	; case 117
  3038  0660  1903               	skipnz
  3039  0661  2E39               	goto	l3904
  3040  0662  3A0D               	xorlw	120^117	; case 120
  3041  0663  1903               	skipnz
  3042  0664  2D93               	goto	l1069
  3043  0665  2E30               	goto	l3900
  3044                           	opt asmopt_on
  3045                           
  3046                           	line	825
  3047                           	
  3048  0666                     l1070:	
  3049                           	line	1281
  3050                           	
  3051  0666                     l3910:	
  3052  0666  082A               	movf	(printf@ap),w
  3053  0667  0084               	movwf	fsr0
  3054  0668  1383               	bcf	status, 7	;select IRP bank0
  3055  0669  0800               	movf	indf,w
  3056  066A  00AF               	movwf	(printf@_val)
  3057  066B  0A84               	incf	fsr0,f
  3058  066C  0800               	movf	indf,w
  3059  066D  00B0               	movwf	(printf@_val+1)
  3060                           	
  3061  066E                     l3912:	
  3062  066E  3002               	movlw	(02h)
  3063  066F  00A6               	movwf	(??_printf+0)+0
  3064  0670  0826               	movf	(??_printf+0)+0,w
  3065  0671  07AA               	addwf	(printf@ap),f
  3066                           	line	1289
  3067  0672  2EE4               	goto	l3944
  3068                           	line	1297
  3069                           	
  3070  0673                     l1089:	
  3071                           	line	1300
  3072                           	
  3073  0673                     l3914:	
  3074  0673  01AE               	clrf	(printf@c)
  3075  0674  1403               	bsf	status,0
  3076  0675  0DAE               	rlf	(printf@c),f
  3077                           	
  3078  0676                     l3916:	
  3079  0676  082E               	movf	(printf@c),w
  3080  0677  3A05               	xorlw	05h
  3081  0678  1D03               	skipz
  3082  0679  2E7B               	goto	u3001
  3083  067A  2E7C               	goto	u3000
  3084  067B                     u3001:
  3085  067B  2E7E               	goto	l3920
  3086  067C                     u3000:
  3087  067C  2EED               	goto	l3946
  3088                           	
  3089  067D                     l3918:	
  3090  067D  2EED               	goto	l3946
  3091                           	line	1301
  3092                           	
  3093  067E                     l1090:	
  3094                           	
  3095  067E                     l3920:	
  3096  067E  082E               	movf	(printf@c),w
  3097  067F  00A6               	movwf	(??_printf+0)+0
  3098  0680  0726               	addwf	(??_printf+0)+0,w
  3099  0681  3E12               	addlw	low(_dpowers|8000h)
  3100  0682  0084               	movwf	fsr0
  3101  0683  3088               	movlw	high(_dpowers|8000h)
  3102  0684  1803               	skipnc
  3103  0685  3E01               	addlw	1
  3104  0686  00FF               	movwf	btemp+1
  3105  0687  120A  158A  2000   	fcall	stringtab
              120A  118A         
  3106  068C  00A7               	movwf	(??_printf+1)+0
  3107  068D  120A  158A  2000   	fcall	stringtab
              120A  118A         
  3108  0692  00A8               	movwf	(??_printf+1)+0+1
  3109  0693  0828               	movf	1+(??_printf+1)+0,w
  3110  0694  0230               	subwf	(printf@_val+1),w
  3111  0695  1D03               	skipz
  3112  0696  2E99               	goto	u3015
  3113  0697  0827               	movf	0+(??_printf+1)+0,w
  3114  0698  022F               	subwf	(printf@_val),w
  3115  0699                     u3015:
  3116  0699  1803               	skipnc
  3117  069A  2E9C               	goto	u3011
  3118  069B  2E9D               	goto	u3010
  3119  069C                     u3011:
  3120  069C  2E9F               	goto	l3924
  3121  069D                     u3010:
  3122  069D  2EED               	goto	l3946
  3123                           	line	1302
  3124                           	
  3125  069E                     l3922:	
  3126  069E  2EED               	goto	l3946
  3127                           	
  3128  069F                     l1092:	
  3129                           	line	1300
  3130                           	
  3131  069F                     l3924:	
  3132  069F  3001               	movlw	(01h)
  3133  06A0  00A6               	movwf	(??_printf+0)+0
  3134  06A1  0826               	movf	(??_printf+0)+0,w
  3135  06A2  07AE               	addwf	(printf@c),f
  3136                           	
  3137  06A3                     l3926:	
  3138  06A3  082E               	movf	(printf@c),w
  3139  06A4  3A05               	xorlw	05h
  3140  06A5  1D03               	skipz
  3141  06A6  2EA8               	goto	u3021
  3142  06A7  2EA9               	goto	u3020
  3143  06A8                     u3021:
  3144  06A8  2E7E               	goto	l3920
  3145  06A9                     u3020:
  3146  06A9  2EED               	goto	l3946
  3147                           	
  3148  06AA                     l1091:	
  3149                           	line	1304
  3150  06AA  2EED               	goto	l3946
  3151                           	line	1309
  3152                           	
  3153  06AB                     l1094:	
  3154                           	line	1311
  3155                           	
  3156  06AB                     l3928:	
  3157  06AB  01AE               	clrf	(printf@c)
  3158  06AC  1403               	bsf	status,0
  3159  06AD  0DAE               	rlf	(printf@c),f
  3160                           	
  3161  06AE                     l3930:	
  3162  06AE  082E               	movf	(printf@c),w
  3163  06AF  3A04               	xorlw	04h
  3164  06B0  1D03               	skipz
  3165  06B1  2EB3               	goto	u3031
  3166  06B2  2EB4               	goto	u3030
  3167  06B3                     u3031:
  3168  06B3  2EB6               	goto	l3934
  3169  06B4                     u3030:
  3170  06B4  2EED               	goto	l3946
  3171                           	
  3172  06B5                     l3932:	
  3173  06B5  2EED               	goto	l3946
  3174                           	line	1312
  3175                           	
  3176  06B6                     l1095:	
  3177                           	
  3178  06B6                     l3934:	
  3179  06B6  082E               	movf	(printf@c),w
  3180  06B7  00A6               	movwf	(??_printf+0)+0
  3181  06B8  0726               	addwf	(??_printf+0)+0,w
  3182  06B9  3E1C               	addlw	low(_hexpowers|8000h)
  3183  06BA  0084               	movwf	fsr0
  3184  06BB  3088               	movlw	high(_hexpowers|8000h)
  3185  06BC  1803               	skipnc
  3186  06BD  3E01               	addlw	1
  3187  06BE  00FF               	movwf	btemp+1
  3188  06BF  120A  158A  2000   	fcall	stringtab
              120A  118A         
  3189  06C4  00A7               	movwf	(??_printf+1)+0
  3190  06C5  120A  158A  2000   	fcall	stringtab
              120A  118A         
  3191  06CA  00A8               	movwf	(??_printf+1)+0+1
  3192  06CB  0828               	movf	1+(??_printf+1)+0,w
  3193  06CC  0230               	subwf	(printf@_val+1),w
  3194  06CD  1D03               	skipz
  3195  06CE  2ED1               	goto	u3045
  3196  06CF  0827               	movf	0+(??_printf+1)+0,w
  3197  06D0  022F               	subwf	(printf@_val),w
  3198  06D1                     u3045:
  3199  06D1  1803               	skipnc
  3200  06D2  2ED4               	goto	u3041
  3201  06D3  2ED5               	goto	u3040
  3202  06D4                     u3041:
  3203  06D4  2ED7               	goto	l3938
  3204  06D5                     u3040:
  3205  06D5  2EED               	goto	l3946
  3206                           	line	1313
  3207                           	
  3208  06D6                     l3936:	
  3209  06D6  2EED               	goto	l3946
  3210                           	
  3211  06D7                     l1097:	
  3212                           	line	1311
  3213                           	
  3214  06D7                     l3938:	
  3215  06D7  3001               	movlw	(01h)
  3216  06D8  00A6               	movwf	(??_printf+0)+0
  3217  06D9  0826               	movf	(??_printf+0)+0,w
  3218  06DA  07AE               	addwf	(printf@c),f
  3219                           	
  3220  06DB                     l3940:	
  3221  06DB  082E               	movf	(printf@c),w
  3222  06DC  3A04               	xorlw	04h
  3223  06DD  1D03               	skipz
  3224  06DE  2EE0               	goto	u3051
  3225  06DF  2EE1               	goto	u3050
  3226  06E0                     u3051:
  3227  06E0  2EB6               	goto	l3934
  3228  06E1                     u3050:
  3229  06E1  2EED               	goto	l3946
  3230                           	
  3231  06E2                     l1096:	
  3232                           	line	1315
  3233  06E2  2EED               	goto	l3946
  3234                           	line	1331
  3235                           	
  3236  06E3                     l3942:	
  3237  06E3  2EED               	goto	l3946
  3238                           	line	1289
  3239                           	
  3240  06E4                     l1088:	
  3241                           	
  3242  06E4                     l3944:	
  3243  06E4  082B               	movf	(printf@flag),w
  3244  06E5  39C0               	andlw	0C0h
  3245                           	; Switch size 1, requested type "space"
  3246                           ; Number of cases is 2, Range of values is 128 to 192
  3247                           ; switch strategies available:
  3248                           ; Name         Instructions Cycles
  3249                           ; simple_byte            7     4 (average)
  3250                           ; direct_byte          206    11 (fixed)
  3251                           ; jumptable            263     9 (fixed)
  3252                           ;	Chosen strategy is simple_byte
  3253                           
  3254                           	opt asmopt_off
  3255  06E6  3A80               	xorlw	128^0	; case 128
  3256  06E7  1903               	skipnz
  3257  06E8  2EAB               	goto	l3928
  3258  06E9  3A40               	xorlw	192^128	; case 192
  3259  06EA  1903               	skipnz
  3260  06EB  2E73               	goto	l3914
  3261  06EC  2EED               	goto	l3946
  3262                           	opt asmopt_on
  3263                           
  3264                           	line	1331
  3265                           	
  3266  06ED                     l1093:	
  3267                           	line	1376
  3268                           	
  3269  06ED                     l3946:	
  3270  06ED  082E               	movf	(printf@c),w
  3271  06EE  00A6               	movwf	(??_printf+0)+0
  3272  06EF  01A7               	clrf	(??_printf+0)+0+1
  3273  06F0  1BA6               	btfsc	(??_printf+0)+0,7
  3274  06F1  03A7               	decf	(??_printf+0)+0+1,f
  3275  06F2  0827               	movf	1+(??_printf+0)+0,w
  3276  06F3  3A80               	xorlw	80h
  3277  06F4  00A8               	movwf	(??_printf+2)+0
  3278  06F5  082D               	movf	(printf@width+1),w
  3279  06F6  3A80               	xorlw	80h
  3280  06F7  0228               	subwf	(??_printf+2)+0,w
  3281  06F8  1D03               	skipz
  3282  06F9  2EFC               	goto	u3065
  3283  06FA  082C               	movf	(printf@width),w
  3284  06FB  0226               	subwf	0+(??_printf+0)+0,w
  3285  06FC                     u3065:
  3286                           
  3287  06FC  1803               	skipnc
  3288  06FD  2EFF               	goto	u3061
  3289  06FE  2F00               	goto	u3060
  3290  06FF                     u3061:
  3291  06FF  2F0E               	goto	l3950
  3292  0700                     u3060:
  3293                           	line	1377
  3294                           	
  3295  0700                     l3948:	
  3296  0700  1283               	bcf	status, 5	;RP0=0, select bank0
  3297  0701  1303               	bcf	status, 6	;RP1=0, select bank0
  3298  0702  082E               	movf	(printf@c),w
  3299  0703  00A6               	movwf	(??_printf+0)+0
  3300  0704  01A7               	clrf	(??_printf+0)+0+1
  3301  0705  1BA6               	btfsc	(??_printf+0)+0,7
  3302  0706  03A7               	decf	(??_printf+0)+0+1,f
  3303  0707  0826               	movf	0+(??_printf+0)+0,w
  3304  0708  02AC               	subwf	(printf@width),f
  3305  0709  0827               	movf	1+(??_printf+0)+0,w
  3306  070A  1C03               	skipc
  3307  070B  03AD               	decf	(printf@width+1),f
  3308  070C  02AD               	subwf	(printf@width+1),f
  3309  070D  2F13               	goto	l3952
  3310                           	line	1378
  3311                           	
  3312  070E                     l1098:	
  3313                           	line	1379
  3314                           	
  3315  070E                     l3950:	
  3316  070E  1283               	bcf	status, 5	;RP0=0, select bank0
  3317  070F  1303               	bcf	status, 6	;RP1=0, select bank0
  3318  0710  01AC               	clrf	(printf@width)
  3319  0711  01AD               	clrf	(printf@width+1)
  3320  0712  2F13               	goto	l3952
  3321                           	
  3322  0713                     l1099:	
  3323                           	line	1382
  3324                           	
  3325  0713                     l3952:	
  3326  0713  1D2B               	btfss	(printf@flag),(2)&7
  3327  0714  2F16               	goto	u3071
  3328  0715  2F17               	goto	u3070
  3329  0716                     u3071:
  3330  0716  2F35               	goto	l3960
  3331  0717                     u3070:
  3332                           	line	1410
  3333                           	
  3334  0717                     l3954:	
  3335  0717  082D               	movf	(printf@width+1),w
  3336  0718  042C               	iorwf	(printf@width),w
  3337  0719  1903               	skipnz
  3338  071A  2F1C               	goto	u3081
  3339  071B  2F1D               	goto	u3080
  3340  071C                     u3081:
  3341  071C  2F53               	goto	l3966
  3342  071D                     u3080:
  3343  071D  2F1E               	goto	l3956
  3344                           	line	1411
  3345                           	
  3346  071E                     l1102:	
  3347                           	line	1412
  3348                           	
  3349  071E                     l3956:	
  3350  071E  3030               	movlw	(030h)
  3351  071F  120A  118A  2154   	fcall	_putch
              120A  118A         
  3352                           	line	1413
  3353                           	
  3354  0724                     l3958:	
  3355  0724  30FF               	movlw	low(-1)
  3356  0725  1283               	bcf	status, 5	;RP0=0, select bank0
  3357  0726  1303               	bcf	status, 6	;RP1=0, select bank0
  3358  0727  07AC               	addwf	(printf@width),f
  3359  0728  1803               	skipnc
  3360  0729  0AAD               	incf	(printf@width+1),f
  3361  072A  30FF               	movlw	high(-1)
  3362  072B  07AD               	addwf	(printf@width+1),f
  3363  072C  082D               	movf	(((printf@width+1))),w
  3364  072D  042C               	iorwf	(((printf@width))),w
  3365  072E  1D03               	skipz
  3366  072F  2F31               	goto	u3091
  3367  0730  2F32               	goto	u3090
  3368  0731                     u3091:
  3369  0731  2F1E               	goto	l3956
  3370  0732                     u3090:
  3371  0732  2F53               	goto	l3966
  3372                           	
  3373  0733                     l1103:	
  3374  0733  2F53               	goto	l3966
  3375                           	
  3376  0734                     l1101:	
  3377                           	line	1415
  3378  0734  2F53               	goto	l3966
  3379                           	
  3380  0735                     l1100:	
  3381                           	line	1423
  3382                           	
  3383  0735                     l3960:	
  3384  0735  082D               	movf	(printf@width+1),w
  3385  0736  042C               	iorwf	(printf@width),w
  3386  0737  1903               	skipnz
  3387  0738  2F3A               	goto	u3101
  3388  0739  2F3B               	goto	u3100
  3389  073A                     u3101:
  3390  073A  2F53               	goto	l3966
  3391  073B                     u3100:
  3392  073B  2F3C               	goto	l3962
  3393                           	line	1424
  3394                           	
  3395  073C                     l1106:	
  3396                           	line	1425
  3397                           	
  3398  073C                     l3962:	
  3399  073C  3020               	movlw	(020h)
  3400  073D  120A  118A  2154   	fcall	_putch
              120A  118A         
  3401                           	line	1426
  3402                           	
  3403  0742                     l3964:	
  3404  0742  30FF               	movlw	low(-1)
  3405  0743  1283               	bcf	status, 5	;RP0=0, select bank0
  3406  0744  1303               	bcf	status, 6	;RP1=0, select bank0
  3407  0745  07AC               	addwf	(printf@width),f
  3408  0746  1803               	skipnc
  3409  0747  0AAD               	incf	(printf@width+1),f
  3410  0748  30FF               	movlw	high(-1)
  3411  0749  07AD               	addwf	(printf@width+1),f
  3412  074A  082D               	movf	(((printf@width+1))),w
  3413  074B  042C               	iorwf	(((printf@width))),w
  3414  074C  1D03               	skipz
  3415  074D  2F4F               	goto	u3111
  3416  074E  2F50               	goto	u3110
  3417  074F                     u3111:
  3418  074F  2F3C               	goto	l3962
  3419  0750                     u3110:
  3420  0750  2F53               	goto	l3966
  3421                           	
  3422  0751                     l1107:	
  3423  0751  2F53               	goto	l3966
  3424                           	
  3425  0752                     l1105:	
  3426  0752  2F53               	goto	l3966
  3427                           	line	1464
  3428                           	
  3429  0753                     l1104:	
  3430                           	line	1467
  3431                           	
  3432  0753                     l3966:	
  3433  0753  082E               	movf	(printf@c),w
  3434  0754  00A6               	movwf	(??_printf+0)+0
  3435  0755  0826               	movf	(??_printf+0)+0,w
  3436  0756  00A9               	movwf	(printf@prec)
  3437                           	line	1469
  3438  0757  2FD4               	goto	l3978
  3439                           	
  3440  0758                     l1109:	
  3441                           	line	1471
  3442  0758  2FC4               	goto	l3974
  3443                           	line	1481
  3444                           	
  3445  0759                     l1111:	
  3446                           	line	1484
  3447                           	
  3448  0759                     l3968:	
  3449  0759  300A               	movlw	low(0Ah)
  3450  075A  00F8               	movwf	(?___lwmod)
  3451  075B  3000               	movlw	high(0Ah)
  3452  075C  00F9               	movwf	((?___lwmod))+1
  3453  075D  0829               	movf	(printf@prec),w
  3454  075E  00A6               	movwf	(??_printf+0)+0
  3455  075F  0726               	addwf	(??_printf+0)+0,w
  3456  0760  3E12               	addlw	low(_dpowers|8000h)
  3457  0761  0084               	movwf	fsr0
  3458  0762  3088               	movlw	high(_dpowers|8000h)
  3459  0763  1803               	skipnc
  3460  0764  3E01               	addlw	1
  3461  0765  00FF               	movwf	btemp+1
  3462  0766  120A  158A  2000   	fcall	stringtab
              120A  118A         
  3463  076B  00F0               	movwf	(?___lwdiv)
  3464  076C  120A  158A  2000   	fcall	stringtab
              120A  118A         
  3465  0771  00F1               	movwf	(?___lwdiv+1)
  3466  0772  0830               	movf	(printf@_val+1),w
  3467  0773  01F3               	clrf	1+(?___lwdiv)+02h
  3468  0774  07F3               	addwf	1+(?___lwdiv)+02h
  3469  0775  082F               	movf	(printf@_val),w
  3470  0776  01F2               	clrf	0+(?___lwdiv)+02h
  3471  0777  07F2               	addwf	0+(?___lwdiv)+02h
  3472                           
  3473  0778  120A  118A  22CF   	fcall	___lwdiv
              120A  118A         
  3474  077D  0871               	movf	(1+(?___lwdiv)),w
  3475  077E  01FB               	clrf	1+(?___lwmod)+02h
  3476  077F  07FB               	addwf	1+(?___lwmod)+02h
  3477  0780  0870               	movf	(0+(?___lwdiv)),w
  3478  0781  01FA               	clrf	0+(?___lwmod)+02h
  3479  0782  07FA               	addwf	0+(?___lwmod)+02h
  3480                           
  3481  0783  120A  118A  228B   	fcall	___lwmod
              120A  118A         
  3482  0788  0878               	movf	(0+(?___lwmod)),w
  3483  0789  3E30               	addlw	030h
  3484  078A  1283               	bcf	status, 5	;RP0=0, select bank0
  3485  078B  1303               	bcf	status, 6	;RP1=0, select bank0
  3486  078C  00A7               	movwf	(??_printf+1)+0
  3487  078D  0827               	movf	(??_printf+1)+0,w
  3488  078E  00AE               	movwf	(printf@c)
  3489                           	line	1486
  3490  078F  2FCD               	goto	l3976
  3491                           	line	1492
  3492                           	
  3493  0790                     l1113:	
  3494                           	line	1497
  3495                           	
  3496  0790                     l3970:	
  3497  0790  0829               	movf	(printf@prec),w
  3498  0791  00A6               	movwf	(??_printf+0)+0
  3499  0792  0726               	addwf	(??_printf+0)+0,w
  3500  0793  3E1C               	addlw	low(_hexpowers|8000h)
  3501  0794  0084               	movwf	fsr0
  3502  0795  3088               	movlw	high(_hexpowers|8000h)
  3503  0796  1803               	skipnc
  3504  0797  3E01               	addlw	1
  3505  0798  00FF               	movwf	btemp+1
  3506  0799  120A  158A  2000   	fcall	stringtab
              120A  118A         
  3507  079E  00F0               	movwf	(?___lwdiv)
  3508  079F  120A  158A  2000   	fcall	stringtab
              120A  118A         
  3509  07A4  00F1               	movwf	(?___lwdiv+1)
  3510  07A5  0830               	movf	(printf@_val+1),w
  3511  07A6  01F3               	clrf	1+(?___lwdiv)+02h
  3512  07A7  07F3               	addwf	1+(?___lwdiv)+02h
  3513  07A8  082F               	movf	(printf@_val),w
  3514  07A9  01F2               	clrf	0+(?___lwdiv)+02h
  3515  07AA  07F2               	addwf	0+(?___lwdiv)+02h
  3516                           
  3517  07AB  120A  118A  22CF   	fcall	___lwdiv
              120A  118A         
  3518  07B0  0870               	movf	(0+(?___lwdiv)),w
  3519  07B1  390F               	andlw	0Fh
  3520  07B2  3ED3               	addlw	low(STR_14|8000h)
  3521  07B3  0084               	movwf	fsr0
  3522  07B4  3088               	movlw	high(STR_14|8000h)
  3523  07B5  1803               	skipnc
  3524  07B6  3E01               	addlw	1
  3525  07B7  1283               	bcf	status, 5	;RP0=0, select bank0
  3526  07B8  1303               	bcf	status, 6	;RP1=0, select bank0
  3527  07B9  00FF               	movwf	btemp+1
  3528  07BA  120A  158A  2000   	fcall	stringtab
              120A  118A         
  3529  07BF  00A7               	movwf	(??_printf+1)+0
  3530  07C0  0827               	movf	(??_printf+1)+0,w
  3531  07C1  00AE               	movwf	(printf@c)
  3532                           	line	1502
  3533  07C2  2FCD               	goto	l3976
  3534                           	line	1515
  3535                           	
  3536  07C3                     l3972:	
  3537  07C3  2FCD               	goto	l3976
  3538                           	line	1471
  3539                           	
  3540  07C4                     l1110:	
  3541                           	
  3542  07C4                     l3974:	
  3543  07C4  082B               	movf	(printf@flag),w
  3544  07C5  39C0               	andlw	0C0h
  3545                           	; Switch size 1, requested type "space"
  3546                           ; Number of cases is 2, Range of values is 128 to 192
  3547                           ; switch strategies available:
  3548                           ; Name         Instructions Cycles
  3549                           ; simple_byte            7     4 (average)
  3550                           ; direct_byte          206    11 (fixed)
  3551                           ; jumptable            263     9 (fixed)
  3552                           ;	Chosen strategy is simple_byte
  3553                           
  3554                           	opt asmopt_off
  3555  07C6  3A80               	xorlw	128^0	; case 128
  3556  07C7  1903               	skipnz
  3557  07C8  2F90               	goto	l3970
  3558  07C9  3A40               	xorlw	192^128	; case 192
  3559  07CA  1903               	skipnz
  3560  07CB  2F59               	goto	l3968
  3561  07CC  2FCD               	goto	l3976
  3562                           	opt asmopt_on
  3563                           
  3564                           	line	1515
  3565                           	
  3566  07CD                     l1112:	
  3567                           	line	1516
  3568                           	
  3569  07CD                     l3976:	
  3570  07CD  082E               	movf	(printf@c),w
  3571  07CE  120A  118A  2154   	fcall	_putch
              120A  118A         
  3572  07D3  2FD4               	goto	l3978
  3573                           	line	1517
  3574                           	
  3575  07D4                     l1108:	
  3576                           	line	1469
  3577                           	
  3578  07D4                     l3978:	
  3579  07D4  30FF               	movlw	(-1)
  3580  07D5  1283               	bcf	status, 5	;RP0=0, select bank0
  3581  07D6  1303               	bcf	status, 6	;RP1=0, select bank0
  3582  07D7  00A6               	movwf	(??_printf+0)+0
  3583  07D8  0826               	movf	(??_printf+0)+0,w
  3584  07D9  07A9               	addwf	(printf@prec),f
  3585  07DA  0829               	movf	((printf@prec)),w
  3586  07DB  3AFF               	xorlw	-1
  3587  07DC  1D03               	skipz
  3588  07DD  2FDF               	goto	u3121
  3589  07DE  2FE0               	goto	u3120
  3590  07DF                     u3121:
  3591  07DF  2FC4               	goto	l3974
  3592  07E0                     u3120:
  3593  07E0  2FE2               	goto	l3980
  3594                           	
  3595  07E1                     l1114:	
  3596  07E1  2FE2               	goto	l3980
  3597                           	line	1525
  3598                           	
  3599  07E2                     l1053:	
  3600                           	line	540
  3601                           	
  3602  07E2                     l3980:	
  3603  07E2  1283               	bcf	status, 5	;RP0=0, select bank0
  3604  07E3  1303               	bcf	status, 6	;RP1=0, select bank0
  3605  07E4  0821               	movf	(printf@f+1),w
  3606  07E5  00A7               	movwf	(??_printf+0)+0+1
  3607  07E6  0820               	movf	(printf@f),w
  3608  07E7  00A6               	movwf	(??_printf+0)+0
  3609  07E8  3001               	movlw	(01h)
  3610  07E9  07A0               	addwf	(printf@f),f
  3611  07EA  1803               	skipnc
  3612  07EB  0AA1               	incf	(printf@f+1),f
  3613  07EC  0827               	movf	1+(??_printf+0)+0,w
  3614  07ED  00FF               	movwf	btemp+1
  3615  07EE  0826               	movf	0+(??_printf+0)+0,w
  3616  07EF  0084               	movwf	fsr0
  3617  07F0  120A  158A  2000   	fcall	stringtab
              120A  118A         
  3618  07F5  00A8               	movwf	(??_printf+2)+0
  3619  07F6  0828               	movf	(??_printf+2)+0,w
  3620  07F7  00AE               	movwf	(printf@c)
  3621  07F8  08AE               	movf	((printf@c)),f
  3622  07F9  1D03               	skipz
  3623  07FA  2FFC               	goto	u3131
  3624  07FB  2FFD               	goto	u3130
  3625  07FC                     u3131:
  3626  07FC  2D09               	goto	l3842
  3627  07FD                     u3130:
  3628  07FD  2FFF               	goto	l1116
  3629                           	
  3630  07FE                     l1115:	
  3631  07FE  2FFF               	goto	l1116
  3632                           	line	1527
  3633                           	
  3634  07FF                     l1067:	
  3635                           	line	1533
  3636                           ;	Return value of _printf is never used
  3637                           	
  3638  07FF                     l1116:	
  3639  07FF  0008               	return
  3640                           	opt stack 0
  3641                           GLOBAL	__end_of_printf
  3642  0800                     	__end_of_printf:
  3643 ;; =============== function _printf ends ============
  3644                           
  3645                           	signat	_printf,602
  3646                           	global	_i2c_wait
  3647                           psect	text395,local,class=CODE,delta=2
  3648                           global __ptext395
  3649  014D                     __ptext395:
  3650                           
  3651 ;; *************** function _i2c_wait *****************
  3652 ;; Defined at:
  3653 ;;		line 50 in file "C:\Users\chait\Desktop\Project\BitBanging GPIO\uart_check.c"
  3654 ;; Parameters:    Size  Location     Type
  3655 ;;		None
  3656 ;; Auto vars:     Size  Location     Type
  3657 ;;		None
  3658 ;; Return value:  Size  Location     Type
  3659 ;;		None               void
  3660 ;; Registers used:
  3661 ;;		None
  3662 ;; Tracked objects:
  3663 ;;		On entry : 0/0
  3664 ;;		On exit  : 0/0
  3665 ;;		Unchanged: 0/0
  3666 ;; Data sizes:     COMMON   BANK0   BANK1   BANK3   BANK2
  3667 ;;      Params:         0       0       0       0       0
  3668 ;;      Locals:         0       0       0       0       0
  3669 ;;      Temps:          0       0       0       0       0
  3670 ;;      Totals:         0       0       0       0       0
  3671 ;;Total ram usage:        0 bytes
  3672 ;; Hardware stack levels used:    1
  3673 ;; This function calls:
  3674 ;;		Nothing
  3675 ;; This function is called by:
  3676 ;;		_i2c_start
  3677 ;;		_i2c_stop
  3678 ;;		_i2c_read_ack
  3679 ;;		_i2c_send_ack
  3680 ;;		_i2c_write_byte
  3681 ;;		_i2c_read_byte
  3682 ;; This function uses a non-reentrant model
  3683 ;;
  3684                           psect	text395
  3685                           	file	"C:\Users\chait\Desktop\Project\BitBanging GPIO\uart_check.c"
  3686                           	line	50
  3687                           	global	__size_of_i2c_wait
  3688  0003                     	__size_of_i2c_wait	equ	__end_of_i2c_wait-_i2c_wait
  3689                           	
  3690  014D                     _i2c_wait:	
  3691                           	opt	stack 5
  3692                           ; Regs used in _i2c_wait: []
  3693                           	line	51
  3694                           	
  3695  014D                     l3838:	
  3696                           ;uart_check.c: 51: _delay((unsigned long)((5)*(3570000/4000000.0)));
  3697                           		opt asmopt_off
  3698  014D  294E               	nop2	;2 cycle nop
  3699                           	opt asmopt_on
  3700                           	opt asmopt_off
  3701  014E  294F               	nop2	;2 cycle nop
  3702                           	opt asmopt_on
  3703                           
  3704                           	line	52
  3705                           	
  3706  014F                     l980:	
  3707  014F  0008               	return
  3708                           	opt stack 0
  3709                           GLOBAL	__end_of_i2c_wait
  3710  0150                     	__end_of_i2c_wait:
  3711 ;; =============== function _i2c_wait ends ============
  3712                           
  3713                           	signat	_i2c_wait,88
  3714                           	global	___lwmod
  3715                           psect	text396,local,class=CODE,delta=2
  3716                           global __ptext396
  3717  028B                     __ptext396:
  3718                           
  3719 ;; *************** function ___lwmod *****************
  3720 ;; Defined at:
  3721 ;;		line 5 in file "C:\Program Files (x86)\HI-TECH Software\PICC\9.83\sources\lwmod.c"
  3722 ;; Parameters:    Size  Location     Type
  3723 ;;  divisor         2    8[COMMON] unsigned int 
  3724 ;;  dividend        2   10[COMMON] unsigned int 
  3725 ;; Auto vars:     Size  Location     Type
  3726 ;;  counter         1   13[COMMON] unsigned char 
  3727 ;; Return value:  Size  Location     Type
  3728 ;;                  2    8[COMMON] unsigned int 
  3729 ;; Registers used:
  3730 ;;		wreg, status,2, status,0
  3731 ;; Tracked objects:
  3732 ;;		On entry : 0/0
  3733 ;;		On exit  : 0/0
  3734 ;;		Unchanged: 0/0
  3735 ;; Data sizes:     COMMON   BANK0   BANK1   BANK3   BANK2
  3736 ;;      Params:         4       0       0       0       0
  3737 ;;      Locals:         1       0       0       0       0
  3738 ;;      Temps:          1       0       0       0       0
  3739 ;;      Totals:         6       0       0       0       0
  3740 ;;Total ram usage:        6 bytes
  3741 ;; Hardware stack levels used:    1
  3742 ;; This function calls:
  3743 ;;		Nothing
  3744 ;; This function is called by:
  3745 ;;		_printf
  3746 ;; This function uses a non-reentrant model
  3747 ;;
  3748                           psect	text396
  3749                           	file	"C:\Program Files (x86)\HI-TECH Software\PICC\9.83\sources\lwmod.c"
  3750                           	line	5
  3751                           	global	__size_of___lwmod
  3752  0044                     	__size_of___lwmod	equ	__end_of___lwmod-___lwmod
  3753                           	
  3754  028B                     ___lwmod:	
  3755                           	opt	stack 6
  3756                           ; Regs used in ___lwmod: [wreg+status,2+status,0]
  3757                           	line	8
  3758                           	
  3759  028B                     l3816:	
  3760  028B  0879               	movf	(___lwmod@divisor+1),w
  3761  028C  0478               	iorwf	(___lwmod@divisor),w
  3762  028D  1903               	skipnz
  3763  028E  2A90               	goto	u2861
  3764  028F  2A91               	goto	u2860
  3765  0290                     u2861:
  3766  0290  2AC7               	goto	l3834
  3767  0291                     u2860:
  3768                           	line	9
  3769                           	
  3770  0291                     l3818:	
  3771  0291  01FD               	clrf	(___lwmod@counter)
  3772  0292  1403               	bsf	status,0
  3773  0293  0DFD               	rlf	(___lwmod@counter),f
  3774                           	line	10
  3775  0294  2AA1               	goto	l3824
  3776                           	
  3777  0295                     l2074:	
  3778                           	line	11
  3779                           	
  3780  0295                     l3820:	
  3781  0295  3001               	movlw	01h
  3782                           	
  3783  0296                     u2875:
  3784  0296  1003               	clrc
  3785  0297  0DF8               	rlf	(___lwmod@divisor),f
  3786  0298  0DF9               	rlf	(___lwmod@divisor+1),f
  3787  0299  3EFF               	addlw	-1
  3788  029A  1D03               	skipz
  3789  029B  2A96               	goto	u2875
  3790                           	line	12
  3791                           	
  3792  029C                     l3822:	
  3793  029C  3001               	movlw	(01h)
  3794  029D  00FC               	movwf	(??___lwmod+0)+0
  3795  029E  087C               	movf	(??___lwmod+0)+0,w
  3796  029F  07FD               	addwf	(___lwmod@counter),f
  3797  02A0  2AA1               	goto	l3824
  3798                           	line	13
  3799                           	
  3800  02A1                     l2073:	
  3801                           	line	10
  3802                           	
  3803  02A1                     l3824:	
  3804  02A1  1FF9               	btfss	(___lwmod@divisor+1),(15)&7
  3805  02A2  2AA4               	goto	u2881
  3806  02A3  2AA5               	goto	u2880
  3807  02A4                     u2881:
  3808  02A4  2A95               	goto	l3820
  3809  02A5                     u2880:
  3810  02A5  2AA7               	goto	l3826
  3811                           	
  3812  02A6                     l2075:	
  3813  02A6  2AA7               	goto	l3826
  3814                           	line	14
  3815                           	
  3816  02A7                     l2076:	
  3817                           	line	15
  3818                           	
  3819  02A7                     l3826:	
  3820  02A7  0879               	movf	(___lwmod@divisor+1),w
  3821  02A8  027B               	subwf	(___lwmod@dividend+1),w
  3822  02A9  1D03               	skipz
  3823  02AA  2AAD               	goto	u2895
  3824  02AB  0878               	movf	(___lwmod@divisor),w
  3825  02AC  027A               	subwf	(___lwmod@dividend),w
  3826  02AD                     u2895:
  3827  02AD  1C03               	skipc
  3828  02AE  2AB0               	goto	u2891
  3829  02AF  2AB1               	goto	u2890
  3830  02B0                     u2891:
  3831  02B0  2AB8               	goto	l3830
  3832  02B1                     u2890:
  3833                           	line	16
  3834                           	
  3835  02B1                     l3828:	
  3836  02B1  0878               	movf	(___lwmod@divisor),w
  3837  02B2  02FA               	subwf	(___lwmod@dividend),f
  3838  02B3  0879               	movf	(___lwmod@divisor+1),w
  3839  02B4  1C03               	skipc
  3840  02B5  03FB               	decf	(___lwmod@dividend+1),f
  3841  02B6  02FB               	subwf	(___lwmod@dividend+1),f
  3842  02B7  2AB8               	goto	l3830
  3843                           	
  3844  02B8                     l2077:	
  3845                           	line	17
  3846                           	
  3847  02B8                     l3830:	
  3848  02B8  3001               	movlw	01h
  3849                           	
  3850  02B9                     u2905:
  3851  02B9  1003               	clrc
  3852  02BA  0CF9               	rrf	(___lwmod@divisor+1),f
  3853  02BB  0CF8               	rrf	(___lwmod@divisor),f
  3854  02BC  3EFF               	addlw	-1
  3855  02BD  1D03               	skipz
  3856  02BE  2AB9               	goto	u2905
  3857                           	line	18
  3858                           	
  3859  02BF                     l3832:	
  3860  02BF  3001               	movlw	low(01h)
  3861  02C0  02FD               	subwf	(___lwmod@counter),f
  3862  02C1  1D03               	btfss	status,2
  3863  02C2  2AC4               	goto	u2911
  3864  02C3  2AC5               	goto	u2910
  3865  02C4                     u2911:
  3866  02C4  2AA7               	goto	l3826
  3867  02C5                     u2910:
  3868  02C5  2AC7               	goto	l3834
  3869                           	
  3870  02C6                     l2078:	
  3871  02C6  2AC7               	goto	l3834
  3872                           	line	19
  3873                           	
  3874  02C7                     l2072:	
  3875                           	line	20
  3876                           	
  3877  02C7                     l3834:	
  3878  02C7  087B               	movf	(___lwmod@dividend+1),w
  3879  02C8  01F9               	clrf	(?___lwmod+1)
  3880  02C9  07F9               	addwf	(?___lwmod+1)
  3881  02CA  087A               	movf	(___lwmod@dividend),w
  3882  02CB  01F8               	clrf	(?___lwmod)
  3883  02CC  07F8               	addwf	(?___lwmod)
  3884                           
  3885  02CD  2ACE               	goto	l2079
  3886                           	
  3887  02CE                     l3836:	
  3888                           	line	21
  3889                           	
  3890  02CE                     l2079:	
  3891  02CE  0008               	return
  3892                           	opt stack 0
  3893                           GLOBAL	__end_of___lwmod
  3894  02CF                     	__end_of___lwmod:
  3895 ;; =============== function ___lwmod ends ============
  3896                           
  3897                           	signat	___lwmod,8314
  3898                           	global	___lwdiv
  3899                           psect	text397,local,class=CODE,delta=2
  3900                           global __ptext397
  3901  02CF                     __ptext397:
  3902                           
  3903 ;; *************** function ___lwdiv *****************
  3904 ;; Defined at:
  3905 ;;		line 5 in file "C:\Program Files (x86)\HI-TECH Software\PICC\9.83\sources\lwdiv.c"
  3906 ;; Parameters:    Size  Location     Type
  3907 ;;  divisor         2    0[COMMON] unsigned int 
  3908 ;;  dividend        2    2[COMMON] unsigned int 
  3909 ;; Auto vars:     Size  Location     Type
  3910 ;;  quotient        2    5[COMMON] unsigned int 
  3911 ;;  counter         1    7[COMMON] unsigned char 
  3912 ;; Return value:  Size  Location     Type
  3913 ;;                  2    0[COMMON] unsigned int 
  3914 ;; Registers used:
  3915 ;;		wreg, status,2, status,0
  3916 ;; Tracked objects:
  3917 ;;		On entry : 0/0
  3918 ;;		On exit  : 0/0
  3919 ;;		Unchanged: 0/0
  3920 ;; Data sizes:     COMMON   BANK0   BANK1   BANK3   BANK2
  3921 ;;      Params:         4       0       0       0       0
  3922 ;;      Locals:         3       0       0       0       0
  3923 ;;      Temps:          1       0       0       0       0
  3924 ;;      Totals:         8       0       0       0       0
  3925 ;;Total ram usage:        8 bytes
  3926 ;; Hardware stack levels used:    1
  3927 ;; This function calls:
  3928 ;;		Nothing
  3929 ;; This function is called by:
  3930 ;;		_printf
  3931 ;; This function uses a non-reentrant model
  3932 ;;
  3933                           psect	text397
  3934                           	file	"C:\Program Files (x86)\HI-TECH Software\PICC\9.83\sources\lwdiv.c"
  3935                           	line	5
  3936                           	global	__size_of___lwdiv
  3937  004E                     	__size_of___lwdiv	equ	__end_of___lwdiv-___lwdiv
  3938                           	
  3939  02CF                     ___lwdiv:	
  3940                           	opt	stack 6
  3941                           ; Regs used in ___lwdiv: [wreg+status,2+status,0]
  3942                           	line	9
  3943                           	
  3944  02CF                     l3790:	
  3945  02CF  01F5               	clrf	(___lwdiv@quotient)
  3946  02D0  01F6               	clrf	(___lwdiv@quotient+1)
  3947                           	line	10
  3948                           	
  3949  02D1                     l3792:	
  3950  02D1  0871               	movf	(___lwdiv@divisor+1),w
  3951  02D2  0470               	iorwf	(___lwdiv@divisor),w
  3952  02D3  1903               	skipnz
  3953  02D4  2AD6               	goto	u2791
  3954  02D5  2AD7               	goto	u2790
  3955  02D6                     u2791:
  3956  02D6  2B15               	goto	l3812
  3957  02D7                     u2790:
  3958                           	line	11
  3959                           	
  3960  02D7                     l3794:	
  3961  02D7  01F7               	clrf	(___lwdiv@counter)
  3962  02D8  1403               	bsf	status,0
  3963  02D9  0DF7               	rlf	(___lwdiv@counter),f
  3964                           	line	12
  3965  02DA  2AE7               	goto	l3800
  3966                           	
  3967  02DB                     l2064:	
  3968                           	line	13
  3969                           	
  3970  02DB                     l3796:	
  3971  02DB  3001               	movlw	01h
  3972                           	
  3973  02DC                     u2805:
  3974  02DC  1003               	clrc
  3975  02DD  0DF0               	rlf	(___lwdiv@divisor),f
  3976  02DE  0DF1               	rlf	(___lwdiv@divisor+1),f
  3977  02DF  3EFF               	addlw	-1
  3978  02E0  1D03               	skipz
  3979  02E1  2ADC               	goto	u2805
  3980                           	line	14
  3981                           	
  3982  02E2                     l3798:	
  3983  02E2  3001               	movlw	(01h)
  3984  02E3  00F4               	movwf	(??___lwdiv+0)+0
  3985  02E4  0874               	movf	(??___lwdiv+0)+0,w
  3986  02E5  07F7               	addwf	(___lwdiv@counter),f
  3987  02E6  2AE7               	goto	l3800
  3988                           	line	15
  3989                           	
  3990  02E7                     l2063:	
  3991                           	line	12
  3992                           	
  3993  02E7                     l3800:	
  3994  02E7  1FF1               	btfss	(___lwdiv@divisor+1),(15)&7
  3995  02E8  2AEA               	goto	u2811
  3996  02E9  2AEB               	goto	u2810
  3997  02EA                     u2811:
  3998  02EA  2ADB               	goto	l3796
  3999  02EB                     u2810:
  4000  02EB  2AED               	goto	l3802
  4001                           	
  4002  02EC                     l2065:	
  4003  02EC  2AED               	goto	l3802
  4004                           	line	16
  4005                           	
  4006  02ED                     l2066:	
  4007                           	line	17
  4008                           	
  4009  02ED                     l3802:	
  4010  02ED  3001               	movlw	01h
  4011                           	
  4012  02EE                     u2825:
  4013  02EE  1003               	clrc
  4014  02EF  0DF5               	rlf	(___lwdiv@quotient),f
  4015  02F0  0DF6               	rlf	(___lwdiv@quotient+1),f
  4016  02F1  3EFF               	addlw	-1
  4017  02F2  1D03               	skipz
  4018  02F3  2AEE               	goto	u2825
  4019                           	line	18
  4020  02F4  0871               	movf	(___lwdiv@divisor+1),w
  4021  02F5  0273               	subwf	(___lwdiv@dividend+1),w
  4022  02F6  1D03               	skipz
  4023  02F7  2AFA               	goto	u2835
  4024  02F8  0870               	movf	(___lwdiv@divisor),w
  4025  02F9  0272               	subwf	(___lwdiv@dividend),w
  4026  02FA                     u2835:
  4027  02FA  1C03               	skipc
  4028  02FB  2AFD               	goto	u2831
  4029  02FC  2AFE               	goto	u2830
  4030  02FD                     u2831:
  4031  02FD  2B06               	goto	l3808
  4032  02FE                     u2830:
  4033                           	line	19
  4034                           	
  4035  02FE                     l3804:	
  4036  02FE  0870               	movf	(___lwdiv@divisor),w
  4037  02FF  02F2               	subwf	(___lwdiv@dividend),f
  4038  0300  0871               	movf	(___lwdiv@divisor+1),w
  4039  0301  1C03               	skipc
  4040  0302  03F3               	decf	(___lwdiv@dividend+1),f
  4041  0303  02F3               	subwf	(___lwdiv@dividend+1),f
  4042                           	line	20
  4043                           	
  4044  0304                     l3806:	
  4045  0304  1475               	bsf	(___lwdiv@quotient)+(0/8),(0)&7
  4046  0305  2B06               	goto	l3808
  4047                           	line	21
  4048                           	
  4049  0306                     l2067:	
  4050                           	line	22
  4051                           	
  4052  0306                     l3808:	
  4053  0306  3001               	movlw	01h
  4054                           	
  4055  0307                     u2845:
  4056  0307  1003               	clrc
  4057  0308  0CF1               	rrf	(___lwdiv@divisor+1),f
  4058  0309  0CF0               	rrf	(___lwdiv@divisor),f
  4059  030A  3EFF               	addlw	-1
  4060  030B  1D03               	skipz
  4061  030C  2B07               	goto	u2845
  4062                           	line	23
  4063                           	
  4064  030D                     l3810:	
  4065  030D  3001               	movlw	low(01h)
  4066  030E  02F7               	subwf	(___lwdiv@counter),f
  4067  030F  1D03               	btfss	status,2
  4068  0310  2B12               	goto	u2851
  4069  0311  2B13               	goto	u2850
  4070  0312                     u2851:
  4071  0312  2AED               	goto	l3802
  4072  0313                     u2850:
  4073  0313  2B15               	goto	l3812
  4074                           	
  4075  0314                     l2068:	
  4076  0314  2B15               	goto	l3812
  4077                           	line	24
  4078                           	
  4079  0315                     l2062:	
  4080                           	line	25
  4081                           	
  4082  0315                     l3812:	
  4083  0315  0876               	movf	(___lwdiv@quotient+1),w
  4084  0316  01F1               	clrf	(?___lwdiv+1)
  4085  0317  07F1               	addwf	(?___lwdiv+1)
  4086  0318  0875               	movf	(___lwdiv@quotient),w
  4087  0319  01F0               	clrf	(?___lwdiv)
  4088  031A  07F0               	addwf	(?___lwdiv)
  4089                           
  4090  031B  2B1C               	goto	l2069
  4091                           	
  4092  031C                     l3814:	
  4093                           	line	26
  4094                           	
  4095  031C                     l2069:	
  4096  031C  0008               	return
  4097                           	opt stack 0
  4098                           GLOBAL	__end_of___lwdiv
  4099  031D                     	__end_of___lwdiv:
  4100 ;; =============== function ___lwdiv ends ============
  4101                           
  4102                           	signat	___lwdiv,8314
  4103                           	global	___wmul
  4104                           psect	text398,local,class=CODE,delta=2
  4105                           global __ptext398
  4106  01EF                     __ptext398:
  4107                           
  4108 ;; *************** function ___wmul *****************
  4109 ;; Defined at:
  4110 ;;		line 3 in file "C:\Program Files (x86)\HI-TECH Software\PICC\9.83\sources\wmul.c"
  4111 ;; Parameters:    Size  Location     Type
  4112 ;;  multiplier      2    0[COMMON] unsigned int 
  4113 ;;  multiplicand    2    2[COMMON] unsigned int 
  4114 ;; Auto vars:     Size  Location     Type
  4115 ;;  product         2    4[COMMON] unsigned int 
  4116 ;; Return value:  Size  Location     Type
  4117 ;;                  2    0[COMMON] unsigned int 
  4118 ;; Registers used:
  4119 ;;		wreg, status,2, status,0
  4120 ;; Tracked objects:
  4121 ;;		On entry : 0/0
  4122 ;;		On exit  : 0/0
  4123 ;;		Unchanged: 0/0
  4124 ;; Data sizes:     COMMON   BANK0   BANK1   BANK3   BANK2
  4125 ;;      Params:         4       0       0       0       0
  4126 ;;      Locals:         2       0       0       0       0
  4127 ;;      Temps:          0       0       0       0       0
  4128 ;;      Totals:         6       0       0       0       0
  4129 ;;Total ram usage:        6 bytes
  4130 ;; Hardware stack levels used:    1
  4131 ;; This function calls:
  4132 ;;		Nothing
  4133 ;; This function is called by:
  4134 ;;		_printf
  4135 ;; This function uses a non-reentrant model
  4136 ;;
  4137                           psect	text398
  4138                           	file	"C:\Program Files (x86)\HI-TECH Software\PICC\9.83\sources\wmul.c"
  4139                           	line	3
  4140                           	global	__size_of___wmul
  4141  002A                     	__size_of___wmul	equ	__end_of___wmul-___wmul
  4142                           	
  4143  01EF                     ___wmul:	
  4144                           	opt	stack 6
  4145                           ; Regs used in ___wmul: [wreg+status,2+status,0]
  4146                           	line	4
  4147                           	
  4148  01EF                     l3778:	
  4149  01EF  01F4               	clrf	(___wmul@product)
  4150  01F0  01F5               	clrf	(___wmul@product+1)
  4151  01F1  29F2               	goto	l3780
  4152                           	line	6
  4153                           	
  4154  01F2                     l2056:	
  4155                           	line	7
  4156                           	
  4157  01F2                     l3780:	
  4158  01F2  1C70               	btfss	(___wmul@multiplier),(0)&7
  4159  01F3  29F5               	goto	u2751
  4160  01F4  29F6               	goto	u2750
  4161  01F5                     u2751:
  4162  01F5  29FC               	goto	l2057
  4163  01F6                     u2750:
  4164                           	line	8
  4165                           	
  4166  01F6                     l3782:	
  4167  01F6  0872               	movf	(___wmul@multiplicand),w
  4168  01F7  07F4               	addwf	(___wmul@product),f
  4169  01F8  1803               	skipnc
  4170  01F9  0AF5               	incf	(___wmul@product+1),f
  4171  01FA  0873               	movf	(___wmul@multiplicand+1),w
  4172  01FB  07F5               	addwf	(___wmul@product+1),f
  4173                           	
  4174  01FC                     l2057:	
  4175                           	line	9
  4176  01FC  3001               	movlw	01h
  4177                           	
  4178  01FD                     u2765:
  4179  01FD  1003               	clrc
  4180  01FE  0DF2               	rlf	(___wmul@multiplicand),f
  4181  01FF  0DF3               	rlf	(___wmul@multiplicand+1),f
  4182  0200  3EFF               	addlw	-1
  4183  0201  1D03               	skipz
  4184  0202  29FD               	goto	u2765
  4185                           	line	10
  4186                           	
  4187  0203                     l3784:	
  4188  0203  3001               	movlw	01h
  4189                           	
  4190  0204                     u2775:
  4191  0204  1003               	clrc
  4192  0205  0CF1               	rrf	(___wmul@multiplier+1),f
  4193  0206  0CF0               	rrf	(___wmul@multiplier),f
  4194  0207  3EFF               	addlw	-1
  4195  0208  1D03               	skipz
  4196  0209  2A04               	goto	u2775
  4197                           	line	11
  4198  020A  0871               	movf	((___wmul@multiplier+1)),w
  4199  020B  0470               	iorwf	((___wmul@multiplier)),w
  4200  020C  1D03               	skipz
  4201  020D  2A0F               	goto	u2781
  4202  020E  2A10               	goto	u2780
  4203  020F                     u2781:
  4204  020F  29F2               	goto	l3780
  4205  0210                     u2780:
  4206  0210  2A11               	goto	l3786
  4207                           	
  4208  0211                     l2058:	
  4209                           	line	12
  4210                           	
  4211  0211                     l3786:	
  4212  0211  0875               	movf	(___wmul@product+1),w
  4213  0212  01F1               	clrf	(?___wmul+1)
  4214  0213  07F1               	addwf	(?___wmul+1)
  4215  0214  0874               	movf	(___wmul@product),w
  4216  0215  01F0               	clrf	(?___wmul)
  4217  0216  07F0               	addwf	(?___wmul)
  4218                           
  4219  0217  2A18               	goto	l2059
  4220                           	
  4221  0218                     l3788:	
  4222                           	line	13
  4223                           	
  4224  0218                     l2059:	
  4225  0218  0008               	return
  4226                           	opt stack 0
  4227                           GLOBAL	__end_of___wmul
  4228  0219                     	__end_of___wmul:
  4229 ;; =============== function ___wmul ends ============
  4230                           
  4231                           	signat	___wmul,8314
  4232                           	global	_isdigit
  4233                           psect	text399,local,class=CODE,delta=2
  4234                           global __ptext399
  4235  0170                     __ptext399:
  4236                           
  4237 ;; *************** function _isdigit *****************
  4238 ;; Defined at:
  4239 ;;		line 13 in file "C:\Program Files (x86)\HI-TECH Software\PICC\9.83\sources\isdigit.c"
  4240 ;; Parameters:    Size  Location     Type
  4241 ;;  c               1    wreg     unsigned char 
  4242 ;; Auto vars:     Size  Location     Type
  4243 ;;  c               1    1[COMMON] unsigned char 
  4244 ;; Return value:  Size  Location     Type
  4245 ;;		None               void
  4246 ;; Registers used:
  4247 ;;		wreg, status,2, status,0
  4248 ;; Tracked objects:
  4249 ;;		On entry : 0/0
  4250 ;;		On exit  : 0/0
  4251 ;;		Unchanged: 0/0
  4252 ;; Data sizes:     COMMON   BANK0   BANK1   BANK3   BANK2
  4253 ;;      Params:         0       0       0       0       0
  4254 ;;      Locals:         2       0       0       0       0
  4255 ;;      Temps:          0       0       0       0       0
  4256 ;;      Totals:         2       0       0       0       0
  4257 ;;Total ram usage:        2 bytes
  4258 ;; Hardware stack levels used:    1
  4259 ;; This function calls:
  4260 ;;		Nothing
  4261 ;; This function is called by:
  4262 ;;		_printf
  4263 ;; This function uses a non-reentrant model
  4264 ;;
  4265                           psect	text399
  4266                           	file	"C:\Program Files (x86)\HI-TECH Software\PICC\9.83\sources\isdigit.c"
  4267                           	global	__size_of_isdigit
  4268  0015                     	__size_of_isdigit	equ	__end_of_isdigit-_isdigit
  4269                           	
  4270  0170                     _isdigit:	
  4271                           	opt	stack 6
  4272                           ; Regs used in _isdigit: [wreg+status,2+status,0]
  4273                           ;isdigit@c stored from wreg
  4274  0170  00F1               	movwf	(isdigit@c)
  4275                           	line	14
  4276                           	
  4277  0171                     l3766:	
  4278  0171  01F0               	clrf	(_isdigit$2270)
  4279                           	
  4280  0172                     l3768:	
  4281  0172  303A               	movlw	(03Ah)
  4282  0173  0271               	subwf	(isdigit@c),w
  4283  0174  1803               	skipnc
  4284  0175  2977               	goto	u2731
  4285  0176  2978               	goto	u2730
  4286  0177                     u2731:
  4287  0177  2982               	goto	l3774
  4288  0178                     u2730:
  4289                           	
  4290  0178                     l3770:	
  4291  0178  3030               	movlw	(030h)
  4292  0179  0271               	subwf	(isdigit@c),w
  4293  017A  1C03               	skipc
  4294  017B  297D               	goto	u2741
  4295  017C  297E               	goto	u2740
  4296  017D                     u2741:
  4297  017D  2982               	goto	l3774
  4298  017E                     u2740:
  4299                           	
  4300  017E                     l3772:	
  4301  017E  01F0               	clrf	(_isdigit$2270)
  4302  017F  1403               	bsf	status,0
  4303  0180  0DF0               	rlf	(_isdigit$2270),f
  4304  0181  2982               	goto	l3774
  4305                           	
  4306  0182                     l2046:	
  4307                           	
  4308  0182                     l3774:	
  4309  0182  0C70               	rrf	(_isdigit$2270),w
  4310                           	
  4311  0183  2984               	goto	l2047
  4312                           	
  4313  0184                     l3776:	
  4314                           	line	15
  4315                           	
  4316  0184                     l2047:	
  4317  0184  0008               	return
  4318                           	opt stack 0
  4319                           GLOBAL	__end_of_isdigit
  4320  0185                     	__end_of_isdigit:
  4321 ;; =============== function _isdigit ends ============
  4322                           
  4323                           	signat	_isdigit,4216
  4324                           	global	_putch
  4325                           psect	text400,local,class=CODE,delta=2
  4326                           global __ptext400
  4327  0154                     __ptext400:
  4328                           
  4329 ;; *************** function _putch *****************
  4330 ;; Defined at:
  4331 ;;		line 41 in file "C:\Users\chait\Desktop\Project\BitBanging GPIO\uart_check.c"
  4332 ;; Parameters:    Size  Location     Type
  4333 ;;  c               1    wreg     unsigned char 
  4334 ;; Auto vars:     Size  Location     Type
  4335 ;;  c               1    0[COMMON] unsigned char 
  4336 ;; Return value:  Size  Location     Type
  4337 ;;		None               void
  4338 ;; Registers used:
  4339 ;;		wreg
  4340 ;; Tracked objects:
  4341 ;;		On entry : 0/0
  4342 ;;		On exit  : 0/0
  4343 ;;		Unchanged: 0/0
  4344 ;; Data sizes:     COMMON   BANK0   BANK1   BANK3   BANK2
  4345 ;;      Params:         0       0       0       0       0
  4346 ;;      Locals:         1       0       0       0       0
  4347 ;;      Temps:          0       0       0       0       0
  4348 ;;      Totals:         1       0       0       0       0
  4349 ;;Total ram usage:        1 bytes
  4350 ;; Hardware stack levels used:    1
  4351 ;; This function calls:
  4352 ;;		Nothing
  4353 ;; This function is called by:
  4354 ;;		_printf
  4355 ;; This function uses a non-reentrant model
  4356 ;;
  4357                           psect	text400
  4358                           	file	"C:\Users\chait\Desktop\Project\BitBanging GPIO\uart_check.c"
  4359                           	line	41
  4360                           	global	__size_of_putch
  4361  000C                     	__size_of_putch	equ	__end_of_putch-_putch
  4362                           	
  4363  0154                     _putch:	
  4364                           	opt	stack 6
  4365                           ; Regs used in _putch: [wreg]
  4366                           ;putch@c stored from wreg
  4367  0154  00F0               	movwf	(putch@c)
  4368                           	line	42
  4369                           	
  4370  0155                     l3762:	
  4371                           ;uart_check.c: 42: while (!TXIF);
  4372  0155  2956               	goto	l974
  4373                           	
  4374  0156                     l975:	
  4375                           	
  4376  0156                     l974:	
  4377  0156  1283               	bcf	status, 5	;RP0=0, select bank0
  4378  0157  1303               	bcf	status, 6	;RP1=0, select bank0
  4379  0158  1E0C               	btfss	(100/8),(100)&7
  4380  0159  295B               	goto	u2721
  4381  015A  295C               	goto	u2720
  4382  015B                     u2721:
  4383  015B  2956               	goto	l974
  4384  015C                     u2720:
  4385  015C  295D               	goto	l3764
  4386                           	
  4387  015D                     l976:	
  4388                           	line	43
  4389                           	
  4390  015D                     l3764:	
  4391                           ;uart_check.c: 43: TXREG = c;
  4392  015D  0870               	movf	(putch@c),w
  4393  015E  0099               	movwf	(25)	;volatile
  4394                           	line	44
  4395                           	
  4396  015F                     l977:	
  4397  015F  0008               	return
  4398                           	opt stack 0
  4399                           GLOBAL	__end_of_putch
  4400  0160                     	__end_of_putch:
  4401 ;; =============== function _putch ends ============
  4402                           
  4403                           	signat	_putch,4216
  4404                           	global	_uart_init
  4405                           psect	text401,local,class=CODE,delta=2
  4406                           global __ptext401
  4407  0160                     __ptext401:
  4408                           
  4409 ;; *************** function _uart_init *****************
  4410 ;; Defined at:
  4411 ;;		line 32 in file "C:\Users\chait\Desktop\Project\BitBanging GPIO\uart_check.c"
  4412 ;; Parameters:    Size  Location     Type
  4413 ;;		None
  4414 ;; Auto vars:     Size  Location     Type
  4415 ;;		None
  4416 ;; Return value:  Size  Location     Type
  4417 ;;		None               void
  4418 ;; Registers used:
  4419 ;;		wreg
  4420 ;; Tracked objects:
  4421 ;;		On entry : 0/0
  4422 ;;		On exit  : 0/0
  4423 ;;		Unchanged: 0/0
  4424 ;; Data sizes:     COMMON   BANK0   BANK1   BANK3   BANK2
  4425 ;;      Params:         0       0       0       0       0
  4426 ;;      Locals:         0       0       0       0       0
  4427 ;;      Temps:          0       0       0       0       0
  4428 ;;      Totals:         0       0       0       0       0
  4429 ;;Total ram usage:        0 bytes
  4430 ;; Hardware stack levels used:    1
  4431 ;; This function calls:
  4432 ;;		Nothing
  4433 ;; This function is called by:
  4434 ;;		_main
  4435 ;; This function uses a non-reentrant model
  4436 ;;
  4437                           psect	text401
  4438                           	file	"C:\Users\chait\Desktop\Project\BitBanging GPIO\uart_check.c"
  4439                           	line	32
  4440                           	global	__size_of_uart_init
  4441  0010                     	__size_of_uart_init	equ	__end_of_uart_init-_uart_init
  4442                           	
  4443  0160                     _uart_init:	
  4444                           	opt	stack 7
  4445                           ; Regs used in _uart_init: [wreg]
  4446                           	line	33
  4447                           	
  4448  0160                     l3750:	
  4449                           ;uart_check.c: 33: SPBRG = 46;
  4450  0160  302E               	movlw	(02Eh)
  4451  0161  1683               	bsf	status, 5	;RP0=1, select bank1
  4452  0162  1303               	bcf	status, 6	;RP1=0, select bank1
  4453  0163  0099               	movwf	(153)^080h	;volatile
  4454                           	line	34
  4455                           	
  4456  0164                     l3752:	
  4457                           ;uart_check.c: 34: BRGH = 1;
  4458  0164  1518               	bsf	(1218/8)^080h,(1218)&7
  4459                           	line	35
  4460                           	
  4461  0165                     l3754:	
  4462                           ;uart_check.c: 35: SYNC = 0;
  4463  0165  1218               	bcf	(1220/8)^080h,(1220)&7
  4464                           	line	36
  4465                           	
  4466  0166                     l3756:	
  4467                           ;uart_check.c: 36: SPEN = 1;
  4468  0166  1283               	bcf	status, 5	;RP0=0, select bank0
  4469  0167  1303               	bcf	status, 6	;RP1=0, select bank0
  4470  0168  1798               	bsf	(199/8),(199)&7
  4471                           	line	37
  4472                           	
  4473  0169                     l3758:	
  4474                           ;uart_check.c: 37: TXEN = 1;
  4475  0169  1683               	bsf	status, 5	;RP0=1, select bank1
  4476  016A  1303               	bcf	status, 6	;RP1=0, select bank1
  4477  016B  1698               	bsf	(1221/8)^080h,(1221)&7
  4478                           	line	38
  4479                           	
  4480  016C                     l3760:	
  4481                           ;uart_check.c: 38: CREN = 1;
  4482  016C  1283               	bcf	status, 5	;RP0=0, select bank0
  4483  016D  1303               	bcf	status, 6	;RP1=0, select bank0
  4484  016E  1618               	bsf	(196/8),(196)&7
  4485                           	line	39
  4486                           	
  4487  016F                     l971:	
  4488  016F  0008               	return
  4489                           	opt stack 0
  4490                           GLOBAL	__end_of_uart_init
  4491  0170                     	__end_of_uart_init:
  4492 ;; =============== function _uart_init ends ============
  4493                           
  4494                           	signat	_uart_init,88
  4495                           psect	text402,local,class=CODE,delta=2
  4496                           global __ptext402
  4497  0000                     __ptext402:
  4498                           	global	btemp
  4499  007E                     	btemp set 07Eh
  4500                           
  4501                           	DABS	1,126,2	;btemp
  4502                           	global	wtemp0
  4503  007E                     	wtemp0 set btemp


HI-TECH Software PICC Macro Assembler V9.83 build 10920 
Symbol Table                                                                                   Thu Aug 07 17:03:11 2025

                         pc 0002                          _RD 0C60                          _WR 0C61  
                        fsr 0004         ___wmul@multiplicand 0072             i2c_write_byte@i 0074  
                       l971 016F                         l980 014F                         l974 0156  
                       l975 0156                         l983 01B5                         l976 015D  
                       l992 01EE                         l977 015F                         l986 019C  
                       l995 0223                         _GIE 005F                         l996 024B  
                       l989 01D1                         l997 0251                         _RB3 0033  
                       _RB4 0034       eeprom_write_byte@addr 0075       eeprom_write_byte@data 0077  
                       fsr0 0004                         indf 0000     __size_of_i2c_write_byte 0039  
                      l1000 0260                        l1001 0282                        l1002 0271  
                      l1010 0356                        l1003 028A                        l1011 036E  
                      l1100 0735                        l1101 0734                        l1110 07C4  
                      l1102 071E                        l1006 032F                        l1014 0381  
                      l1030 04A7                        l1022 03F7                        l1111 0759  
                      l1103 0733                        l1007 0367                        l1015 03C1  
                      l1023 0454                        l1112 07CD                        l1104 0753  
                      l1008 033C                        l1016 038E                        l1032 04AC  
                      l1024 043B                        l1113 0790                        l1105 0752  
                      l1009 0349                        l1017 039B                        l1033 04CF  
                      l1025 0447                        l1114 07E1                        l1106 073C  
                      l1018 03AD                        l1034 04E2                        l1026 0469  
                      l1115 07FE                        l1107 0751                        l1019 03C8  
                      l1035 04FE                        l1027 04ED                        l1108 07D4  
                      l1116 07FF                        l1060 0533                        l1036 04FE  
                      l1028 04D0                        l1053 07E2                        l1109 0758  
                      l1061 0535                        l1037 04FF                        l1070 0666  
                      l1062 0591                        l1054 0509                        l1038 04FF  
                      l1071 0597                        l1063 054C                        l1055 0516  
                      l1080 05E0                        l1072 05AE                        l1064 0590  
                      l1056 051C                        l1065 063F                        l1081 05FA  
                      l1073 05B8                        l1057 0526                        l1090 067E  
                      l1082 0612                        l1074 05B1                        l1066 0592  
                      l1058 051D                        l1067 07FF                        l1091 06AA  
                      l1083 05FB                        l1075 05CA                        l1059 0534  
                      l1092 069F                        l1084 0623                        l1076 05CB  
                      l1068 0593                        l1093 06ED                        l1085 0624  
                      l1077 05DC                        l1069 0593                        l2046 0182  
                      l2062 0315                        l1094 06AB                        l1086 0630  
                      l1078 05DF                        l2047 0184                        l2063 02E7  
                      l1095 06B6                        l1087 0639                        l1079 05E7  
                      l2056 01F2                        l2064 02DB                        l2072 02C7  
                      l1088 06E4                        l1096 06E2                        l4000 01B6  
                      l2057 01FC                        l2065 02EC                        l2073 02A1  
                      l1097 06D7                        l1089 0673                        l2058 0211  
                      l2066 02ED                        l2074 0295                        l1098 070E  
                      l4010 01D1                        l4002 01BC                        l2059 0218  
                      l2067 0306                        l2075 02A6                        l1099 0713  
                      l2068 0314                        l2076 02A7                        l4004 01C1  
                      l4012 01D3                        l4020 021B                        l4100 0374  
                      l2069 031C                        l2077 02B8                        l2078 02C6  
                      l4006 01C9                        l4014 01E1                        l4030 0240  
                      l4022 0222                        l4110 039A                        l4102 0380  
                      l2079 02CE                        l4008 01CA                        l4016 01E6  
                      l4032 0244                        l4024 0231                        l4040 0258  
                      l4120 03B9                        l4112 039B                        l4104 0381  
                      l4200 04E2                        l4026 0236                        l4034 024B  
                      l4018 021A                        l4050 026A                        l4042 025F  
                      l4130 03C8                        l4122 03BE                        l4114 03A0  
                      l4106 038D                        l4202 04E6                        l4036 0251  
                      l4028 023E                        l4052 0270                        l4060 0282  
                      l4044 0260                        l4124 03C0                        l4116 03AC  
                      l4108 038E                        l4204 04ED                        l4140 03D6  
                      l4132 03C9                        l4062 0288                        l4054 0272  
                      l4046 0262                        l4038 0253                        l4070 032E  
                      l4118 03AD                        l4126 03C1                        l4150 03F7  
                      l4142 03E1                        l4134 03CD                        l4064 028A  
                      l4056 0277                        l4048 0265                        l4080 0349  
                      l4072 032F                        l4128 03C6                        l4160 043B  
                      l4152 03FE                        l4144 03EC                        l4136 03D0  
                      l4058 027B                        l4090 0366                        l4082 0355  
                      l4074 033B                        l4066 031D                        l4170 0460  
                      l4162 0447                        l4154 0403                        l4146 03EF  
                      l4138 03D1                        l4084 0356                        l4076 033C  
                      l4092 0367                        l4068 0322                        l4180 0475  
                      l4172 0461                        l4164 044D                        l4156 0419  
                      l4148 03F6                        l4094 036C                        l4086 035B  
                      l4078 0348                        l4190 04AC                        l4182 0484  
                      l4174 0468                        l4158 042F                        l4166 0454  
                      l3800 02E7                        l4096 036E                        l4088 0364  
                      l4192 04C2                        l4184 049A                        l4176 0469  
                      l4168 045D                        l3810 030D                        l3802 02ED  
                      l4098 036F                        l4194 04CA                        l4186 04A2  
                      l4178 0470                        l3804 02FE                        l3812 0315  
                      l3820 0295                        l3900 0630                        l4188 04A7  
                      l4196 04D0                        l3750 0160                        l3814 031C  
                      l3806 0304                        l3830 02B8                        l3822 029C  
                      l3902 0634                        l3910 0666                        l4198 04DB  
                      l3760 016C                        l3752 0164                        l3808 0306  
                      l3832 02BF                        l3824 02A1                        l3816 028B  
                      l3920 067E                        l3912 066E                        l3904 0639  
                      l3840 0502                        l3754 0165                        l3762 0155  
                      l3770 0178                        l3826 02A7                        l3818 0291  
                      l3834 02C7                        l3930 06AE                        l3922 069E  
                      l3914 0673                        l3906 063E                        l3850 051E  
                      l3842 0509                        l3756 0166                        l3764 015D  
                      l3772 017E                        l3780 01F2                        l3836 02CE  
                      l3828 02B1                        l3940 06DB                        l3932 06B5  
                      l3924 069F                        l3916 0676                        l3860 054C  
                      l3908 063F                        l3852 0525                        l3844 050F  
                      l3758 0169                        l3774 0182                        l3766 0171  
                      l3782 01F6                        l3790 02CF                        l3838 014D  
                      l3950 070E                        l3942 06E3                        l3934 06B6  
                      l3926 06A3                        l3918 067D                        l3870 05A3  
                      l3862 0577                        l3854 0526                        l3846 0516  
                      l3776 0184                        l3768 0172                        l3784 0203  
                      l3792 02D1                        l3960 0735                        l3952 0713  
                      l3936 06D6                        l3928 06AB                        l3944 06E4  
                      l3880 05CB                        l3872 05A9                        l3864 057D  
                      l3856 0535                        l3848 051A                        l3786 0211  
                      l3778 01EF                        l3794 02D7                        l3970 0790  
                      l3962 073C                        l3954 0717                        l3938 06D7  
                      l3946 06ED                        l3890 05FB                        l3882 05D5  
                      l3874 05AE                        l3866 0597                        l3858 0547  
                      l3788 0218                        l3796 02DB                        l3972 07C3  
                      l3964 0742                        l3956 071E                        l3948 0700  
                      l3892 0609                        l3884 05DC                        l3876 05B1  
                      l3868 059F                        l3980 07E2                        l3798 02E2  
                      l3974 07C4                        l3958 0724                        l3966 0753  
                      l3894 0612                        l3886 05E0                        l3878 05B8  
                      l3990 01AF                        l3982 019D                        l3976 07CD  
                      l3968 0759                        l3896 0624                        l3888 05E7  
                      l3984 01A4                        l3992 0185                        l3978 07D4  
                      l3898 062B                        l3986 01A9                        l3994 018C  
                      l3988 01AC                        l3996 0191                        l3998 0194  
                      STR_1 0824                        STR_2 084F                        STR_3 088F  
                      STR_4 091E                        STR_5 0911                        STR_6 08AA  
                      STR_7 08C0                        STR_8 08E4                        STR_9 0918  
                      _BRGH 04C2                        _CREN 00C4                        u3000 067C  
                      u3001 067B                        u3010 069D                        u3011 069C  
                      u3100 073B                        u3020 06A9                        u3101 073A  
                      u3021 06A8                        u3110 0750                        u3030 06B4  
                      u3111 074F                        u3031 06B3                        u3015 0699  
                      u3120 07E0                        u3040 06D5                        u3200 025E  
                      u3121 07DF                        u3041 06D4                        u3201 025D  
                      u3130 07FD                        u3050 06E1                        u3210 0270  
                      u3131 07FC                        u3051 06E0                        u3211 026F  
                      u3060 0700                        u3140 01DD                        u3220 0281  
                      u3300 03AB                        u3061 06FF                        u3045 06D1  
                      u3141 01D9                        u3221 0280                        u3301 03AA  
                      u3070 0717                        u3230 032D                        u3310 03F5  
                      u3071 0716                        u3231 032C                        u3311 03F4  
                      u3080 071D                        u3160 0221                        u3240 033A  
                      u3320 042F                        u3081 071C                        u3065 06FC  
                      u3161 0220                        u3241 0339                        u3321 042E  
                      u3090 0732                        u3154 01E0                        u3170 022D  
                      u3250 0347                        u3330 0453                        u3091 0731  
                      u3171 0229                        u3251 0346                        u3331 0452  
                      u3260 0354                        u3340 0467                        u3261 0353  
                      u3341 0466                        u3190 024A                        u3270 037F  
                      u3350 049A                        u3191 0249                        u3271 037E  
                      u3351 0499                        u2720 015C                        u3184 0230  
                      u3280 038C                        u3360 04A2                        u2721 015B  
                      u3281 038B                        u3361 04A1                        u2730 0178  
                      u2810 02EB                        u3290 0399                        u3370 04CA  
                      u2731 0177                        u2811 02EA                        u3291 0398  
                      u3371 04C9                        u2740 017E                        u3380 04EC  
                      u2741 017D                        u2805 02DC                        u3381 04EB  
                      u2750 01F6                        u2830 02FE                        u2910 02C5  
                      u2751 01F5                        u2831 02FD                        u2911 02C4  
                      u2920 050F                        u2825 02EE                        u2905 02B9  
                      u2921 050E                        u2850 0313                        u2930 0547  
                      u2851 0312                        u2835 02FA                        u2931 0546  
                      u2780 0210                        u2860 0291                        u2940 058F  
                      u2781 020F                        u2765 01FD                        u2845 0307  
                      u2861 0290                        u2941 058E                        u3397 035F  
                      u2790 02D7                        u2950 05A9                        u2775 0204  
                      u2791 02D6                        u2951 05A8                        u2880 02A5  
                      u2960 05C9                        u2881 02A4                        u2961 05C8  
                      u2890 02B1                        u2970 05D5                        u2891 02B0  
                      u2875 0296                        u2971 05D4                        u2980 05F9  
                      u2981 05F8                        u2990 0622                        u2895 02AD  
                      u2991 0621                        u2975 05D1                        u2985 05F5  
                      u2995 061E                        _SPEN 00C7                        _WREN 0C62  
                      _TXEN 04C5                        _TXIF 0064                        _SYNC 04C4  
             _i2c_read_byte 0252                        _main 03C9                        btemp 007E  
             ?_i2c_read_ack 0070                        start 0000               ?_i2c_send_ack 0070  
                     ?_main 0070                       _EEADR 010D                       STR_10 0900  
                     STR_11 08F4                       STR_12 0871                       STR_13 090A  
                     STR_14 08D3                       _CARRY 0018                       _ANSEL 0188  
           __end_of___lwdiv 031D             __end_of___lwmod 02CF                main@val_1740 0040  
                     _SPBRG 0099                       _TXREG 0019                main@expected 003D  
           __end_of_isdigit 0185                       _putch 0154                       main@i 003E  
                     pclath 000A               main@addr_1741 003A              ?_i2c_read_byte 0070  
                     status 0003              ??_i2c_read_ack 0070                       wtemp0 007E  
            ??_i2c_send_ack 0070                __end_of_main 0502            __end_of_i2c_wait 0150  
          __end_of_i2c_stop 019D                      ??_main 0033          i2c_write_byte@data 0073  
                    _EEDATA 010C                      _EECON1 018C                      _EECON2 018D  
                    ?_putch 0070                      _ANSELH 0189            _eeprom_read_byte 036F  
                    _TRISB3 0433                      _TRISB4 0434          __size_of_i2c_start 0019  
                    ___wmul 01EF                   ??___lwdiv 0074                   ??___lwmod 007C  
                    _printf 0502                   ??_isdigit 0070              _i2c_write_byte 0219  
                    putch@c 0070             ??_i2c_read_byte 0071              __pcstackCOMMON 0070  
             __end_of_putch 0160           __end_of_i2c_start 01B6        __end_of_i2c_read_ack 01D2  
    __end_of_i2c_write_byte 0252        __end_of_i2c_send_ack 01EF                     ??_putch 0070  
                 ?_i2c_wait 0070                   ?_i2c_stop 0070                  __pmaintext 03C9  
                   ?___wmul 0070                     ?_printf 0020          __size_of_uart_init 0010  
           ?_i2c_write_byte 0070                  ??_i2c_wait 0070                  ??_i2c_stop 0070  
      eeprom_read_byte@addr 0075        eeprom_read_byte@data 0077             __size_of___wmul 002A  
                   ___lwdiv 02CF                     ___lwmod 028B    __end_of_eeprom_read_byte 03C9  
           __size_of_printf 02FE                     _dpowers 0812                     _isdigit 0170  
                   main@err 0037                     main@val 003C        end_of_initialization 0150  
         __end_of_uart_init 0170                     printf@c 002E                     printf@f 0020  
     __size_of_i2c_read_ack 001C                __pstringtext 0800             i2c_read_ack@ack 0071  
     __size_of_i2c_send_ack 001D           _eeprom_write_byte 031D          ?_eeprom_write_byte 0075  
                main@i_1739 003F         ??_eeprom_write_byte 0078                 printf@width 002C  
              _i2c_read_ack 01B6                _i2c_send_ack 01D2              __end_of___wmul 0219  
 __end_of_eeprom_write_byte 036F              __end_of_printf 0800         start_initialization 0150  
                 _i2c_start 019D       __end_of_i2c_read_byte 028B           __size_of_i2c_wait 0003  
         __size_of_i2c_stop 0018                    ??___wmul 0074            ??_i2c_write_byte 0072  
                  ??_printf 0026             i2c_send_ack@ack 0070               __pcstackBANK0 0020  
                ?_i2c_start 0070                _isdigit$2270 0070                   _main$1747 0035  
          ___lwdiv@dividend 0072                   __ptext400 0154                   __ptext401 0160  
                 __ptext402 0000                   __ptext390 01D2                   __ptext391 01B6  
                 __ptext392 0185                   __ptext393 019D                   __ptext394 0502  
                 __ptext386 036F                   __ptext395 014D                   __ptext387 031D  
                 __ptext396 028B                   __ptext388 0252                   __ptext397 02CF  
                 __ptext389 0219                   __ptext398 01EF                   __ptext399 0170  
                  ?___lwdiv 0070                    ?___lwmod 0078           ?_eeprom_read_byte 0075  
__size_of_eeprom_write_byte 0052                    ?_isdigit 0070          ??_eeprom_read_byte 0078  
                 _hexpowers 081C            ___lwdiv@quotient 0075              __size_of_putch 000C  
            ___wmul@product 0074                   _uart_init 0160              i2c_read_byte@i 0074  
               __stringbase 0812           ___wmul@multiplier 0070                  printf@_val 002F  
                printf@flag 002B                  printf@prec 0029                 ??_i2c_start 0070  
                  _i2c_wait 014D                    _i2c_stop 0185                  ?_uart_init 0070  
          __size_of___lwdiv 004E            __size_of___lwmod 0044            __size_of_isdigit 0015  
           ___lwdiv@divisor 0070             ___lwdiv@counter 0077               __size_of_main 0139  
                  main@addr 0038                    isdigit@c 0071            ___lwmod@dividend 007A  
                 stringcode 080A                 ??_uart_init 0070                    printf@ap 002A  
    __size_of_i2c_read_byte 0039             ___lwmod@divisor 0078             ___lwmod@counter 007D  
                  stringtab 0800           i2c_read_byte@data 0073   __size_of_eeprom_read_byte 005A  
          i2c_read_byte@ack 0072  
